---
triple:          'arm64-apple-darwin'
binary-path:     '/Users/lloyds/Desktop/asp-zavrsni/test'
relocations:
  - { offsetInCU: 0x4B19, offset: 0x4B19, size: 0x8, addend: 0x0, symName: __ZNSt3__17advanceB8ue170006IPNS_12basic_stringIcNS_11char_traitsIcEENS_9allocatorIcEEEEllvEEvRT_T0_, symObjAddr: 0x4498, symBinAddr: 0x1000062A8, symSize: 0x38 }
  - { offsetInCU: 0x707C, offset: 0x707C, size: 0x8, addend: 0x0, symName: __ZNSt3__124__put_character_sequenceB8ue170006IcNS_11char_traitsIcEEEERNS_13basic_ostreamIT_T0_EES7_PKS4_m, symObjAddr: 0x895C, symBinAddr: 0x10000A76C, symSize: 0x1F4 }
  - { offsetInCU: 0x91F6, offset: 0x91F6, size: 0x8, addend: 0x0, symName: __ZNSt3__17getlineB8ue170006IcNS_11char_traitsIcEENS_9allocatorIcEEEERNS_13basic_istreamIT_T0_EES9_RNS_12basic_stringIS6_S7_T1_EES6_, symObjAddr: 0x2F8, symBinAddr: 0x100002108, symSize: 0x238 }
  - { offsetInCU: 0x9AD0, offset: 0x9AD0, size: 0x8, addend: 0x0, symName: __ZNSt3__17getlineB8ue170006IcNS_11char_traitsIcEENS_9allocatorIcEEEERNS_13basic_istreamIT_T0_EES9_RNS_12basic_stringIS6_S7_T1_EE, symObjAddr: 0xC6C, symBinAddr: 0x100002A7C, symSize: 0x5C }
  - { offsetInCU: 0x9B33, offset: 0x9B33, size: 0x8, addend: 0x0, symName: __ZNSt3__1lsB8ue170006IcNS_11char_traitsIcEENS_9allocatorIcEEEERNS_13basic_ostreamIT_T0_EES9_RKNS_12basic_stringIS6_S7_T1_EE, symObjAddr: 0x11F8, symBinAddr: 0x100003008, symSize: 0x4C }
  - { offsetInCU: 0x9B8B, offset: 0x9B8B, size: 0x8, addend: 0x0, symName: __ZNSt3__1lsB8ue170006IcNS_11char_traitsIcEEEERNS_13basic_ostreamIT_T0_EES7_RKNS_8__iom_t6E, symObjAddr: 0x1244, symBinAddr: 0x100003054, symSize: 0x40 }
  - { offsetInCU: 0x9BDA, offset: 0x9BDA, size: 0x8, addend: 0x0, symName: __ZNSt3__14leftB8ue170006ERNS_8ios_baseE, symObjAddr: 0x12C4, symBinAddr: 0x1000030D4, symSize: 0x30 }
  - { offsetInCU: 0x9C08, offset: 0x9C08, size: 0x8, addend: 0x0, symName: __ZNSt3__14setwB8ue170006Ei, symObjAddr: 0x12F4, symBinAddr: 0x100003104, symSize: 0x2C }
  - { offsetInCU: 0x9C36, offset: 0x9C36, size: 0x8, addend: 0x0, symName: __ZNSt3__14endlB8ue170006IcNS_11char_traitsIcEEEERNS_13basic_ostreamIT_T0_EES7_, symObjAddr: 0x134C, symBinAddr: 0x10000315C, symSize: 0x58 }
  - { offsetInCU: 0x9C76, offset: 0x9C76, size: 0x8, addend: 0x0, symName: __ZNSt3__1neB8ue170006IP6RecordEEbRKNS_11__wrap_iterIT_EES7_, symObjAddr: 0x1804, symBinAddr: 0x100003614, symSize: 0x34 }
  - { offsetInCU: 0x9CB9, offset: 0x9CB9, size: 0x8, addend: 0x0, symName: __ZNSt3__1lsB8ue170006INS_11char_traitsIcEEEERNS_13basic_ostreamIcT_EES6_PKc, symObjAddr: 0x18EC, symBinAddr: 0x1000036FC, symSize: 0x48 }
  - { offsetInCU: 0x9CFF, offset: 0x9CFF, size: 0x8, addend: 0x0, symName: __ZNSt3__14swapB8ue170006I6RecordEEvRT_S3_, symObjAddr: 0x2370, symBinAddr: 0x100004180, symSize: 0x94 }
  - { offsetInCU: 0x9D50, offset: 0x9D50, size: 0x8, addend: 0x0, symName: __ZNSt3__122__make_exception_guardB8ue170006INS_6vectorINS_12basic_stringIcNS_11char_traitsIcEENS_9allocatorIcEEEENS5_IS7_EEE16__destroy_vectorEEENS_28__exception_guard_exceptionsIT_EESC_, symObjAddr: 0x2A1C, symBinAddr: 0x10000482C, symSize: 0x40 }
  - { offsetInCU: 0x9D85, offset: 0x9D85, size: 0x8, addend: 0x0, symName: __ZNSt3__119__allocate_at_leastB8ue170006INS_9allocatorINS_12basic_stringIcNS_11char_traitsIcEENS1_IcEEEEEEEENS_19__allocation_resultINS_16allocator_traitsIT_E7pointerEEERSA_m, symObjAddr: 0x2D28, symBinAddr: 0x100004B38, symSize: 0x40 }
  - { offsetInCU: 0x9DC8, offset: 0x9DC8, size: 0x8, addend: 0x0, symName: __ZNSt3__13minB8ue170006ImEERKT_S3_S3_, symObjAddr: 0x2E80, symBinAddr: 0x100004C90, symSize: 0x2C }
  - { offsetInCU: 0xA00C, offset: 0xA00C, size: 0x8, addend: 0x0, symName: __ZNSt3__13minB8ue170006ImNS_6__lessIvvEEEERKT_S5_S5_T0_, symObjAddr: 0x2EE4, symBinAddr: 0x100004CF4, symSize: 0x54 }
  - { offsetInCU: 0xA0AB, offset: 0xA0AB, size: 0x8, addend: 0x0, symName: __ZNSt3__120__throw_length_errorB8ue170006EPKc, symObjAddr: 0x2F8C, symBinAddr: 0x100004D9C, symSize: 0x64 }
  - { offsetInCU: 0xA0D5, offset: 0xA0D5, size: 0x8, addend: 0x0, symName: __ZNSt3__130__libcpp_is_constant_evaluatedB8ue170006Ev, symObjAddr: 0x3130, symBinAddr: 0x100004F40, symSize: 0xC }
  - { offsetInCU: 0xA0F2, offset: 0xA0F2, size: 0x8, addend: 0x0, symName: __ZNSt3__117__libcpp_allocateB8ue170006Emm, symObjAddr: 0x313C, symBinAddr: 0x100004F4C, symSize: 0x28 }
  - { offsetInCU: 0xA12F, offset: 0xA12F, size: 0x8, addend: 0x0, symName: __ZNSt3__121__libcpp_operator_newB8ue170006IJmEEEPvDpT_, symObjAddr: 0x3164, symBinAddr: 0x100004F74, symSize: 0x24 }
  - { offsetInCU: 0xA168, offset: 0xA168, size: 0x8, addend: 0x0, symName: __ZNSt3__112__to_addressB8ue170006INS_12basic_stringIcNS_11char_traitsIcEENS_9allocatorIcEEEEEEPT_S8_, symObjAddr: 0x3280, symBinAddr: 0x100005090, symSize: 0x14 }
  - { offsetInCU: 0xA19D, offset: 0xA19D, size: 0x8, addend: 0x0, symName: __ZNSt3__130__uninitialized_allocator_copyB8ue170006INS_9allocatorINS_12basic_stringIcNS_11char_traitsIcEENS1_IcEEEEEEPS6_S8_S8_EET2_RT_T0_T1_S9_, symObjAddr: 0x3330, symBinAddr: 0x100005140, symSize: 0x80 }
  - { offsetInCU: 0xA23A, offset: 0xA23A, size: 0x8, addend: 0x0, symName: __ZNSt3__114__unwrap_rangeB8ue170006IPNS_12basic_stringIcNS_11char_traitsIcEENS_9allocatorIcEEEES7_EENS_4pairIT0_S9_EET_SB_, symObjAddr: 0x3428, symBinAddr: 0x100005238, symSize: 0x60 }
  - { offsetInCU: 0xA286, offset: 0xA286, size: 0x8, addend: 0x0, symName: __ZNSt3__135__uninitialized_allocator_copy_implB8ue170006INS_9allocatorINS_12basic_stringIcNS_11char_traitsIcEENS1_IcEEEEEEPS6_S8_S8_EET2_RT_T0_T1_S9_, symObjAddr: 0x3488, symBinAddr: 0x100005298, symSize: 0xFC }
  - { offsetInCU: 0xA324, offset: 0xA324, size: 0x8, addend: 0x0, symName: __ZNSt3__113__unwrap_iterB8ue170006IPNS_12basic_stringIcNS_11char_traitsIcEENS_9allocatorIcEEEENS_18__unwrap_iter_implIS7_Lb1EEELi0EEEDTclsrT0_8__unwrapclsr3stdE7declvalIT_EEEESB_, symObjAddr: 0x3584, symBinAddr: 0x100005394, symSize: 0x24 }
  - { offsetInCU: 0xA368, offset: 0xA368, size: 0x8, addend: 0x0, symName: __ZNSt3__113__rewrap_iterB8ue170006IPNS_12basic_stringIcNS_11char_traitsIcEENS_9allocatorIcEEEES7_NS_18__unwrap_iter_implIS7_Lb1EEEEET_SA_T0_, symObjAddr: 0x35A8, symBinAddr: 0x1000053B8, symSize: 0x50 }
  - { offsetInCU: 0xA3BD, offset: 0xA3BD, size: 0x8, addend: 0x0, symName: __ZNSt3__19make_pairB8ue170006IPNS_12basic_stringIcNS_11char_traitsIcEENS_9allocatorIcEEEES7_EENS_4pairINS_18__unwrap_ref_decayIT_E4typeENS9_IT0_E4typeEEEOSA_OSD_, symObjAddr: 0x35F8, symBinAddr: 0x100005408, symSize: 0x38 }
  - { offsetInCU: 0xA4B9, offset: 0xA4B9, size: 0x8, addend: 0x0, symName: __ZNSt3__122__make_exception_guardB8ue170006INS_29_AllocatorDestroyRangeReverseINS_9allocatorINS_12basic_stringIcNS_11char_traitsIcEENS2_IcEEEEEEPS7_EEEENS_28__exception_guard_exceptionsIT_EESC_, symObjAddr: 0x36A0, symBinAddr: 0x1000054B0, symSize: 0x4C }
  - { offsetInCU: 0xA4EF, offset: 0xA4EF, size: 0x8, addend: 0x0, symName: __ZNSt3__119__allocator_destroyB8ue170006INS_9allocatorINS_12basic_stringIcNS_11char_traitsIcEENS1_IcEEEEEENS_16reverse_iteratorIPS6_EESA_EEvRT_T0_T1_, symObjAddr: 0x3928, symBinAddr: 0x100005738, symSize: 0x70 }
  - { offsetInCU: 0xA552, offset: 0xA552, size: 0x8, addend: 0x0, symName: __ZNSt3__1neB8ue170006IPNS_12basic_stringIcNS_11char_traitsIcEENS_9allocatorIcEEEES7_EEbRKNS_16reverse_iteratorIT_EERKNS8_IT0_EE, symObjAddr: 0x39CC, symBinAddr: 0x1000057DC, symSize: 0x48 }
  - { offsetInCU: 0xA59E, offset: 0xA59E, size: 0x8, addend: 0x0, symName: __ZNSt3__112__to_addressB8ue170006INS_16reverse_iteratorIPNS_12basic_stringIcNS_11char_traitsIcEENS_9allocatorIcEEEEEEvEEu7__decayIDTclsr19__to_address_helperIT_EE6__callclsr3stdE7declvalIRKSA_EEEEESC_, symObjAddr: 0x3A40, symBinAddr: 0x100005850, symSize: 0x24 }
  - { offsetInCU: 0xA650, offset: 0xA650, size: 0x8, addend: 0x0, symName: __ZNSt3__119__libcpp_deallocateB8ue170006EPvmm, symObjAddr: 0x3F3C, symBinAddr: 0x100005D4C, symSize: 0x30 }
  - { offsetInCU: 0xA698, offset: 0xA698, size: 0x8, addend: 0x0, symName: __ZNSt3__127__do_deallocate_handle_sizeB8ue170006IJEEEvPvmDpT_, symObjAddr: 0x3F6C, symBinAddr: 0x100005D7C, symSize: 0x28 }
  - { offsetInCU: 0xA6D6, offset: 0xA6D6, size: 0x8, addend: 0x0, symName: __ZNSt3__124__libcpp_operator_deleteB8ue170006IJPvEEEvDpT_, symObjAddr: 0x3F94, symBinAddr: 0x100005DA4, symSize: 0x24 }
  - { offsetInCU: 0xA70B, offset: 0xA70B, size: 0x8, addend: 0x0, symName: __ZNSt3__18distanceB8ue170006IPNS_12basic_stringIcNS_11char_traitsIcEENS_9allocatorIcEEEEEENS_15iterator_traitsIT_E15difference_typeES9_S9_, symObjAddr: 0x4220, symBinAddr: 0x100006030, symSize: 0x2C }
  - { offsetInCU: 0xA74E, offset: 0xA74E, size: 0x8, addend: 0x0, symName: __ZNSt3__14nextB8ue170006IPNS_12basic_stringIcNS_11char_traitsIcEENS_9allocatorIcEEEEEENS_9enable_ifIXsr29__has_input_iterator_categoryIT_EE5valueES9_E4typeES9_NS_15iterator_traitsIS9_E15difference_typeE, symObjAddr: 0x424C, symBinAddr: 0x10000605C, symSize: 0x34 }
  - { offsetInCU: 0xA791, offset: 0xA791, size: 0x8, addend: 0x0, symName: __ZNSt3__14copyB8ue170006IPNS_12basic_stringIcNS_11char_traitsIcEENS_9allocatorIcEEEES7_EET0_T_S9_S8_, symObjAddr: 0x4280, symBinAddr: 0x100006090, symSize: 0x40 }
  - { offsetInCU: 0xA7EB, offset: 0xA7EB, size: 0x8, addend: 0x0, symName: __ZNSt3__16__copyB8ue170006INS_17_ClassicAlgPolicyEPNS_12basic_stringIcNS_11char_traitsIcEENS_9allocatorIcEEEES8_S8_EENS_4pairIT0_T2_EESA_T1_SB_, symObjAddr: 0x42C0, symBinAddr: 0x1000060D0, symSize: 0x44 }
  - { offsetInCU: 0xA857, offset: 0xA857, size: 0x8, addend: 0x0, symName: __ZNSt3__121__convert_to_integralB8ue170006El, symObjAddr: 0x44D0, symBinAddr: 0x1000062E0, symSize: 0x14 }
  - { offsetInCU: 0xA883, offset: 0xA883, size: 0x8, addend: 0x0, symName: __ZNSt3__19__advanceB8ue170006IPNS_12basic_stringIcNS_11char_traitsIcEENS_9allocatorIcEEEEEEvRT_NS_15iterator_traitsIS8_E15difference_typeENS_26random_access_iterator_tagE, symObjAddr: 0x44E4, symBinAddr: 0x1000062F4, symSize: 0x30 }
  - { offsetInCU: 0xA8CC, offset: 0xA8CC, size: 0x8, addend: 0x0, symName: __ZNSt3__123__dispatch_copy_or_moveB8ue170006INS_17_ClassicAlgPolicyENS_11__copy_loopIS1_EENS_14__copy_trivialEPNS_12basic_stringIcNS_11char_traitsIcEENS_9allocatorIcEEEESB_SB_EENS_4pairIT2_T4_EESD_T3_SE_, symObjAddr: 0x4514, symBinAddr: 0x100006324, symSize: 0x44 }
  - { offsetInCU: 0xA94A, offset: 0xA94A, size: 0x8, addend: 0x0, symName: __ZNSt3__121__unwrap_and_dispatchB8ue170006INS_10__overloadINS_11__copy_loopINS_17_ClassicAlgPolicyEEENS_14__copy_trivialEEEPNS_12basic_stringIcNS_11char_traitsIcEENS_9allocatorIcEEEESD_SD_Li0EEENS_4pairIT0_T2_EESF_T1_SG_, symObjAddr: 0x4558, symBinAddr: 0x100006368, symSize: 0xB4 }
  - { offsetInCU: 0xAA33, offset: 0xAA33, size: 0x8, addend: 0x0, symName: __ZNSt3__114__rewrap_rangeB8ue170006IPNS_12basic_stringIcNS_11char_traitsIcEENS_9allocatorIcEEEES7_EET_S8_T0_, symObjAddr: 0x4694, symBinAddr: 0x1000064A4, symSize: 0x2C }
  - { offsetInCU: 0xAA7F, offset: 0xAA7F, size: 0x8, addend: 0x0, symName: __ZNSt3__13maxB8ue170006ImEERKT_S3_S3_, symObjAddr: 0x47D4, symBinAddr: 0x1000065E4, symSize: 0x2C }
  - { offsetInCU: 0xAAC2, offset: 0xAAC2, size: 0x8, addend: 0x0, symName: __ZNSt3__13maxB8ue170006ImNS_6__lessIvvEEEERKT_S5_S5_T0_, symObjAddr: 0x4800, symBinAddr: 0x100006610, symSize: 0x54 }
  - { offsetInCU: 0xAB1C, offset: 0xAB1C, size: 0x8, addend: 0x0, symName: __ZNSt3__110__distanceB8ue170006IPNS_12basic_stringIcNS_11char_traitsIcEENS_9allocatorIcEEEEEENS_15iterator_traitsIT_E15difference_typeES9_S9_NS_26random_access_iterator_tagE, symObjAddr: 0x4854, symBinAddr: 0x100006664, symSize: 0x28 }
  - { offsetInCU: 0xAB69, offset: 0xAB69, size: 0x8, addend: 0x0, symName: __ZNSt3__112__to_addressB8ue170006I6RecordEEPT_S3_, symObjAddr: 0x4C94, symBinAddr: 0x100006AA4, symSize: 0x14 }
  - { offsetInCU: 0xADD3, offset: 0xADD3, size: 0x8, addend: 0x0, symName: __ZNSt3__142__uninitialized_allocator_move_if_noexceptB8ue170006INS_9allocatorINS_12basic_stringIcNS_11char_traitsIcEENS1_IcEEEEEENS_16reverse_iteratorIPS6_EESA_SA_EET2_RT_T0_T1_SB_, symObjAddr: 0x6540, symBinAddr: 0x100008350, symSize: 0x124 }
  - { offsetInCU: 0xAE73, offset: 0xAE73, size: 0x8, addend: 0x0, symName: __ZNSt3__14swapB8ue170006IPNS_12basic_stringIcNS_11char_traitsIcEENS_9allocatorIcEEEEEEvRT_S9_, symObjAddr: 0x6664, symBinAddr: 0x100008474, symSize: 0x3C }
  - { offsetInCU: 0xAEC4, offset: 0xAEC4, size: 0x8, addend: 0x0, symName: __ZNSt3__122__make_exception_guardB8ue170006INS_29_AllocatorDestroyRangeReverseINS_9allocatorINS_12basic_stringIcNS_11char_traitsIcEENS2_IcEEEEEENS_16reverse_iteratorIPS7_EEEEEENS_28__exception_guard_exceptionsIT_EESE_, symObjAddr: 0x66A0, symBinAddr: 0x1000084B0, symSize: 0x4C }
  - { offsetInCU: 0xAEFA, offset: 0xAEFA, size: 0x8, addend: 0x0, symName: __ZNSt3__119__allocator_destroyB8ue170006INS_9allocatorINS_12basic_stringIcNS_11char_traitsIcEENS1_IcEEEEEENS_16reverse_iteratorINS8_IPS6_EEEESB_EEvRT_T0_T1_, symObjAddr: 0x6910, symBinAddr: 0x100008720, symSize: 0x70 }
  - { offsetInCU: 0xAF5F, offset: 0xAF5F, size: 0x8, addend: 0x0, symName: __ZNSt3__1neB8ue170006INS_16reverse_iteratorIPNS_12basic_stringIcNS_11char_traitsIcEENS_9allocatorIcEEEEEES9_EEbRKNS1_IT_EERKNS1_IT0_EE, symObjAddr: 0x69BC, symBinAddr: 0x1000087CC, symSize: 0x60 }
  - { offsetInCU: 0xAFAB, offset: 0xAFAB, size: 0x8, addend: 0x0, symName: __ZNSt3__112__to_addressB8ue170006INS_16reverse_iteratorINS1_IPNS_12basic_stringIcNS_11char_traitsIcEENS_9allocatorIcEEEEEEEEvEEu7__decayIDTclsr19__to_address_helperIT_EE6__callclsr3stdE7declvalIRKSB_EEEEESD_, symObjAddr: 0x6A1C, symBinAddr: 0x10000882C, symSize: 0x24 }
  - { offsetInCU: 0xB00A, offset: 0xB00A, size: 0x8, addend: 0x0, symName: __ZNSt3__112__to_addressB8ue170006IKcEEPT_S3_, symObjAddr: 0x6E08, symBinAddr: 0x100008C18, symSize: 0x14 }
  - { offsetInCU: 0xB072, offset: 0xB072, size: 0x8, addend: 0x0, symName: __ZNSt3__19use_facetB8ue170006INS_5ctypeIcEEEERKT_RKNS_6localeE, symObjAddr: 0x736C, symBinAddr: 0x10000917C, symSize: 0x2C }
  - { offsetInCU: 0xB53F, offset: 0xB53F, size: 0x8, addend: 0x0, symName: __ZNSt3__119__allocate_at_leastB8ue170006INS_9allocatorI6RecordEEEENS_19__allocation_resultINS_16allocator_traitsIT_E7pointerEEERS6_m, symObjAddr: 0x7C54, symBinAddr: 0x100009A64, symSize: 0x40 }
  - { offsetInCU: 0xB582, offset: 0xB582, size: 0x8, addend: 0x0, symName: __ZNSt3__142__uninitialized_allocator_move_if_noexceptB8ue170006INS_9allocatorI6RecordEENS_16reverse_iteratorIPS2_EES6_S6_EET2_RT_T0_T1_S7_, symObjAddr: 0x7E3C, symBinAddr: 0x100009C4C, symSize: 0x134 }
  - { offsetInCU: 0xB622, offset: 0xB622, size: 0x8, addend: 0x0, symName: __ZNSt3__14swapB8ue170006IP6RecordEEvRT_S4_, symObjAddr: 0x7FBC, symBinAddr: 0x100009DCC, symSize: 0x3C }
  - { offsetInCU: 0xB673, offset: 0xB673, size: 0x8, addend: 0x0, symName: __ZNSt3__122__make_exception_guardB8ue170006INS_29_AllocatorDestroyRangeReverseINS_9allocatorI6RecordEENS_16reverse_iteratorIPS3_EEEEEENS_28__exception_guard_exceptionsIT_EESA_, symObjAddr: 0x80C0, symBinAddr: 0x100009ED0, symSize: 0x4C }
  - { offsetInCU: 0xB6A9, offset: 0xB6A9, size: 0x8, addend: 0x0, symName: __ZNSt3__1neB8ue170006IP6RecordS2_EEbRKNS_16reverse_iteratorIT_EERKNS3_IT0_EE, symObjAddr: 0x8150, symBinAddr: 0x100009F60, symSize: 0x48 }
  - { offsetInCU: 0xB6F5, offset: 0xB6F5, size: 0x8, addend: 0x0, symName: __ZNSt3__112__to_addressB8ue170006INS_16reverse_iteratorIP6RecordEEvEEu7__decayIDTclsr19__to_address_helperIT_EE6__callclsr3stdE7declvalIRKS5_EEEEES7_, symObjAddr: 0x8198, symBinAddr: 0x100009FA8, symSize: 0x24 }
  - { offsetInCU: 0xB754, offset: 0xB754, size: 0x8, addend: 0x0, symName: __ZNSt3__119__allocator_destroyB8ue170006INS_9allocatorI6RecordEENS_16reverse_iteratorINS4_IPS2_EEEES7_EEvRT_T0_T1_, symObjAddr: 0x8454, symBinAddr: 0x10000A264, symSize: 0x70 }
  - { offsetInCU: 0xB7B9, offset: 0xB7B9, size: 0x8, addend: 0x0, symName: __ZNSt3__1neB8ue170006INS_16reverse_iteratorIP6RecordEES4_EEbRKNS1_IT_EERKNS1_IT0_EE, symObjAddr: 0x8500, symBinAddr: 0x10000A310, symSize: 0x60 }
  - { offsetInCU: 0xB805, offset: 0xB805, size: 0x8, addend: 0x0, symName: __ZNSt3__112__to_addressB8ue170006INS_16reverse_iteratorINS1_IP6RecordEEEEvEEu7__decayIDTclsr19__to_address_helperIT_EE6__callclsr3stdE7declvalIRKS6_EEEEES8_, symObjAddr: 0x8560, symBinAddr: 0x10000A370, symSize: 0x24 }
  - { offsetInCU: 0xB864, offset: 0xB864, size: 0x8, addend: 0x0, symName: __ZNSt3__116__pad_and_outputB8ue170006IcNS_11char_traitsIcEEEENS_19ostreambuf_iteratorIT_T0_EES6_PKS4_S8_S8_RNS_8ios_baseES4_, symObjAddr: 0x8B6C, symBinAddr: 0x10000A97C, symSize: 0x248 }
  - { offsetInCU: 0xB933, offset: 0xB933, size: 0x8, addend: 0x0, symName: __ZNSt3__118__constexpr_strlenB8ue170006EPKc, symObjAddr: 0x8FE4, symBinAddr: 0x10000ADF4, symSize: 0x24 }
  - { offsetInCU: 0xB95F, offset: 0xB95F, size: 0x8, addend: 0x0, symName: __ZNSt3__1eqB8ue170006IP6RecordEEbRKNS_11__wrap_iterIT_EES7_, symObjAddr: 0x908C, symBinAddr: 0x10000AE9C, symSize: 0x48 }
  - { offsetInCU: 0xBBF3, offset: 0xBBF3, size: 0x8, addend: 0x0, symName: __ZSt28__throw_bad_array_new_lengthB8ue170006v, symObjAddr: 0x30FC, symBinAddr: 0x100004F0C, symSize: 0x34 }
  - { offsetInCU: 0xC387, offset: 0xC387, size: 0x8, addend: 0x0, symName: __ZNSt3__16vectorINS_12basic_stringIcNS_11char_traitsIcEENS_9allocatorIcEEEENS4_IS6_EEE26__swap_out_circular_bufferERNS_14__split_bufferIS6_RS7_EE, symObjAddr: 0x61CC, symBinAddr: 0x100007FDC, symSize: 0x110 }
  - { offsetInCU: 0xC409, offset: 0xC409, size: 0x8, addend: 0x0, symName: __ZNSt3__16vectorI6RecordNS_9allocatorIS1_EEE26__swap_out_circular_bufferERNS_14__split_bufferIS1_RS3_EE, symObjAddr: 0x78D0, symBinAddr: 0x1000096E0, symSize: 0x110 }
  - { offsetInCU: 0xE88E, offset: 0xE88E, size: 0x8, addend: 0x0, symName: __Z5splitRKNSt3__112basic_stringIcNS_11char_traitsIcEENS_9allocatorIcEEEEc, symObjAddr: 0x0, symBinAddr: 0x100001E10, symSize: 0x184 }
  - { offsetInCU: 0xE9DF, offset: 0xE9DF, size: 0x8, addend: 0x0, symName: __ZNSt3__118basic_stringstreamIcNS_11char_traitsIcEENS_9allocatorIcEEEC1B8ue170006ERKNS_12basic_stringIcS2_S4_EEj, symObjAddr: 0x184, symBinAddr: 0x100001F94, symSize: 0x11C }
  - { offsetInCU: 0xEA26, offset: 0xEA26, size: 0x8, addend: 0x0, symName: __ZNSt3__112basic_stringIcNS_11char_traitsIcEENS_9allocatorIcEEEC1B8ue170006Ev, symObjAddr: 0x2A0, symBinAddr: 0x1000020B0, symSize: 0x2C }
  - { offsetInCU: 0xEA4F, offset: 0xEA4F, size: 0x8, addend: 0x0, symName: __ZNSt3__16vectorINS_12basic_stringIcNS_11char_traitsIcEENS_9allocatorIcEEEENS4_IS6_EEEC1B8ue170006Ev, symObjAddr: 0x2CC, symBinAddr: 0x1000020DC, symSize: 0x2C }
  - { offsetInCU: 0xEA78, offset: 0xEA78, size: 0x8, addend: 0x0, symName: __ZNKSt3__19basic_iosIcNS_11char_traitsIcEEEcvPvB8ue170006Ev, symObjAddr: 0x530, symBinAddr: 0x100002340, symSize: 0x4C }
  - { offsetInCU: 0xEA9D, offset: 0xEA9D, size: 0x8, addend: 0x0, symName: __ZNSt3__16vectorINS_12basic_stringIcNS_11char_traitsIcEENS_9allocatorIcEEEENS4_IS6_EEE9push_backB8ue170006ERKS6_, symObjAddr: 0x57C, symBinAddr: 0x10000238C, symSize: 0x6C }
  - { offsetInCU: 0xEAD2, offset: 0xEAD2, size: 0x8, addend: 0x0, symName: __ZNSt3__16vectorINS_12basic_stringIcNS_11char_traitsIcEENS_9allocatorIcEEEENS4_IS6_EEED1B8ue170006Ev, symObjAddr: 0x5E8, symBinAddr: 0x1000023F8, symSize: 0x2C }
  - { offsetInCU: 0xEB00, offset: 0xEB00, size: 0x8, addend: 0x0, symName: __ZNSt3__118basic_stringstreamIcNS_11char_traitsIcEENS_9allocatorIcEEED1Ev, symObjAddr: 0x620, symBinAddr: 0x100002430, symSize: 0x70 }
  - { offsetInCU: 0xEB2B, offset: 0xEB2B, size: 0x8, addend: 0x0, symName: __Z7readCSVRKNSt3__112basic_stringIcNS_11char_traitsIcEENS_9allocatorIcEEEE, symObjAddr: 0x690, symBinAddr: 0x1000024A0, symSize: 0x434 }
  - { offsetInCU: 0xEC43, offset: 0xEC43, size: 0x8, addend: 0x0, symName: __ZNSt3__114basic_ifstreamIcNS_11char_traitsIcEEEC1ERKNS_12basic_stringIcS2_NS_9allocatorIcEEEEj, symObjAddr: 0xAC4, symBinAddr: 0x1000028D4, symSize: 0x17C }
  - { offsetInCU: 0xEC8C, offset: 0xEC8C, size: 0x8, addend: 0x0, symName: __ZNSt3__16vectorI6RecordNS_9allocatorIS1_EEEC1B8ue170006Ev, symObjAddr: 0xC40, symBinAddr: 0x100002A50, symSize: 0x2C }
  - { offsetInCU: 0xECBA, offset: 0xECBA, size: 0x8, addend: 0x0, symName: __ZN6RecordC1Ev, symObjAddr: 0xCC8, symBinAddr: 0x100002AD8, symSize: 0x2C }
  - { offsetInCU: 0xECE5, offset: 0xECE5, size: 0x8, addend: 0x0, symName: __ZNSt3__16vectorINS_12basic_stringIcNS_11char_traitsIcEENS_9allocatorIcEEEENS4_IS6_EEEixB8ue170006Em, symObjAddr: 0xCF4, symBinAddr: 0x100002B04, symSize: 0x2C }
  - { offsetInCU: 0xED1B, offset: 0xED1B, size: 0x8, addend: 0x0, symName: __ZNSt3__16vectorINS_12basic_stringIcNS_11char_traitsIcEENS_9allocatorIcEEEENS4_IS6_EEEaSB8ue170006EOS8_, symObjAddr: 0xD20, symBinAddr: 0x100002B30, symSize: 0x34 }
  - { offsetInCU: 0xED50, offset: 0xED50, size: 0x8, addend: 0x0, symName: __ZNKSt3__16vectorINS_12basic_stringIcNS_11char_traitsIcEENS_9allocatorIcEEEENS4_IS6_EEE4sizeB8ue170006Ev, symObjAddr: 0xD54, symBinAddr: 0x100002B64, symSize: 0x28 }
  - { offsetInCU: 0xED75, offset: 0xED75, size: 0x8, addend: 0x0, symName: __ZNSt3__16vectorI6RecordNS_9allocatorIS1_EEE9push_backB8ue170006ERKS1_, symObjAddr: 0xD7C, symBinAddr: 0x100002B8C, symSize: 0x6C }
  - { offsetInCU: 0xEDAA, offset: 0xEDAA, size: 0x8, addend: 0x0, symName: __ZN6RecordD1Ev, symObjAddr: 0xDE8, symBinAddr: 0x100002BF8, symSize: 0x2C }
  - { offsetInCU: 0xEDD5, offset: 0xEDD5, size: 0x8, addend: 0x0, symName: __ZNSt3__16vectorI6RecordNS_9allocatorIS1_EEED1B8ue170006Ev, symObjAddr: 0xE14, symBinAddr: 0x100002C24, symSize: 0x2C }
  - { offsetInCU: 0xEE03, offset: 0xEE03, size: 0x8, addend: 0x0, symName: __ZNSt3__114basic_ifstreamIcNS_11char_traitsIcEEED1Ev, symObjAddr: 0xE40, symBinAddr: 0x100002C50, symSize: 0x70 }
  - { offsetInCU: 0xEE2E, offset: 0xEE2E, size: 0x8, addend: 0x0, symName: __Z11printRecordRK6Record, symObjAddr: 0xEB0, symBinAddr: 0x100002CC0, symSize: 0x2C4 }
  - { offsetInCU: 0xEE79, offset: 0xEE79, size: 0x8, addend: 0x0, symName: __ZNKSt3__16vectorINS_12basic_stringIcNS_11char_traitsIcEENS_9allocatorIcEEEENS4_IS6_EEEixB8ue170006Em, symObjAddr: 0x1174, symBinAddr: 0x100002F84, symSize: 0x2C }
  - { offsetInCU: 0xEEAF, offset: 0xEEAF, size: 0x8, addend: 0x0, symName: __ZNSt3__112basic_stringIcNS_11char_traitsIcEENS_9allocatorIcEEEpLB8ue170006ERKS5_, symObjAddr: 0x11A0, symBinAddr: 0x100002FB0, symSize: 0x2C }
  - { offsetInCU: 0xEEE3, offset: 0xEEE3, size: 0x8, addend: 0x0, symName: __ZNSt3__112basic_stringIcNS_11char_traitsIcEENS_9allocatorIcEEEpLB8ue170006EPKc, symObjAddr: 0x11CC, symBinAddr: 0x100002FDC, symSize: 0x2C }
  - { offsetInCU: 0xEF17, offset: 0xEF17, size: 0x8, addend: 0x0, symName: __ZNSt3__113basic_ostreamIcNS_11char_traitsIcEEElsB8ue170006EPFRNS_8ios_baseES5_E, symObjAddr: 0x1284, symBinAddr: 0x100003094, symSize: 0x40 }
  - { offsetInCU: 0xEF4A, offset: 0xEF4A, size: 0x8, addend: 0x0, symName: __ZNSt3__113basic_ostreamIcNS_11char_traitsIcEEElsB8ue170006EPFRS3_S4_E, symObjAddr: 0x1320, symBinAddr: 0x100003130, symSize: 0x2C }
  - { offsetInCU: 0xEF7D, offset: 0xEF7D, size: 0x8, addend: 0x0, symName: _main, symObjAddr: 0x13A4, symBinAddr: 0x1000031B4, symSize: 0x3D0 }
  - { offsetInCU: 0xEFE4, offset: 0xEFE4, size: 0x8, addend: 0x0, symName: __ZNSt3__112basic_stringIcNS_11char_traitsIcEENS_9allocatorIcEEEC1B8ue170006ILi0EEEPKc, symObjAddr: 0x1774, symBinAddr: 0x100003584, symSize: 0x34 }
  - { offsetInCU: 0xF11F, offset: 0xF11F, size: 0x8, addend: 0x0, symName: __ZN7MaxHeapC1Ev, symObjAddr: 0x17A8, symBinAddr: 0x1000035B8, symSize: 0x2C }
  - { offsetInCU: 0xF148, offset: 0xF148, size: 0x8, addend: 0x0, symName: __ZNSt3__16vectorI6RecordNS_9allocatorIS1_EEE5beginB8ue170006Ev, symObjAddr: 0x17D4, symBinAddr: 0x1000035E4, symSize: 0x30 }
  - { offsetInCU: 0xF16E, offset: 0xF16E, size: 0x8, addend: 0x0, symName: __ZNSt3__16vectorI6RecordNS_9allocatorIS1_EEE3endB8ue170006Ev, symObjAddr: 0x1838, symBinAddr: 0x100003648, symSize: 0x30 }
  - { offsetInCU: 0xF194, offset: 0xF194, size: 0x8, addend: 0x0, symName: __ZN7MaxHeap4pushERK6Record, symObjAddr: 0x1868, symBinAddr: 0x100003678, symSize: 0x4C }
  - { offsetInCU: 0xF1C7, offset: 0xF1C7, size: 0x8, addend: 0x0, symName: __ZNKSt3__111__wrap_iterIP6RecordEdeB8ue170006Ev, symObjAddr: 0x18B4, symBinAddr: 0x1000036C4, symSize: 0x18 }
  - { offsetInCU: 0xF1EC, offset: 0xF1EC, size: 0x8, addend: 0x0, symName: __ZNSt3__111__wrap_iterIP6RecordEppB8ue170006Ev, symObjAddr: 0x18CC, symBinAddr: 0x1000036DC, symSize: 0x20 }
  - { offsetInCU: 0xF211, offset: 0xF211, size: 0x8, addend: 0x0, symName: __ZNSt3__112basic_stringIcNS_11char_traitsIcEENS_9allocatorIcEEEC1B8ue170006Emc, symObjAddr: 0x1934, symBinAddr: 0x100003744, symSize: 0x3C }
  - { offsetInCU: 0xF258, offset: 0xF258, size: 0x8, addend: 0x0, symName: __ZNK7MaxHeap7isEmptyEv, symObjAddr: 0x1970, symBinAddr: 0x100003780, symSize: 0x28 }
  - { offsetInCU: 0xF27D, offset: 0xF27D, size: 0x8, addend: 0x0, symName: __ZN7MaxHeap3popEv, symObjAddr: 0x1998, symBinAddr: 0x1000037A8, symSize: 0x144 }
  - { offsetInCU: 0xF2B1, offset: 0xF2B1, size: 0x8, addend: 0x0, symName: __ZN7MaxHeapD1Ev, symObjAddr: 0x1ADC, symBinAddr: 0x1000038EC, symSize: 0x2C }
  - { offsetInCU: 0xF2DC, offset: 0xF2DC, size: 0x8, addend: 0x0, symName: __ZNSt3__118basic_stringstreamIcNS_11char_traitsIcEENS_9allocatorIcEEED2Ev, symObjAddr: 0x1B08, symBinAddr: 0x100003918, symSize: 0xA4 }
  - { offsetInCU: 0xF314, offset: 0xF314, size: 0x8, addend: 0x0, symName: __ZThn16_NSt3__118basic_stringstreamIcNS_11char_traitsIcEENS_9allocatorIcEEED1Ev, symObjAddr: 0x1BAC, symBinAddr: 0x1000039BC, symSize: 0x1C }
  - { offsetInCU: 0xF32B, offset: 0xF32B, size: 0x8, addend: 0x0, symName: __ZTv0_n24_NSt3__118basic_stringstreamIcNS_11char_traitsIcEENS_9allocatorIcEEED1Ev, symObjAddr: 0x1BC8, symBinAddr: 0x1000039D8, symSize: 0x28 }
  - { offsetInCU: 0xF347, offset: 0xF347, size: 0x8, addend: 0x0, symName: __ZNSt3__115basic_stringbufIcNS_11char_traitsIcEENS_9allocatorIcEEED1Ev, symObjAddr: 0x1BF0, symBinAddr: 0x100003A00, symSize: 0x2C }
  - { offsetInCU: 0xF373, offset: 0xF373, size: 0x8, addend: 0x0, symName: __ZNSt3__115basic_stringbufIcNS_11char_traitsIcEENS_9allocatorIcEEED2Ev, symObjAddr: 0x1C1C, symBinAddr: 0x100003A2C, symSize: 0x78 }
  - { offsetInCU: 0xF39F, offset: 0xF39F, size: 0x8, addend: 0x0, symName: __ZN6RecordC2Ev, symObjAddr: 0x1C94, symBinAddr: 0x100003AA4, symSize: 0x1D4 }
  - { offsetInCU: 0xF3CA, offset: 0xF3CA, size: 0x8, addend: 0x0, symName: __ZN6RecordD2Ev, symObjAddr: 0x1E68, symBinAddr: 0x100003C78, symSize: 0x1D0 }
  - { offsetInCU: 0xF3F5, offset: 0xF3F5, size: 0x8, addend: 0x0, symName: __ZNSt3__114basic_ifstreamIcNS_11char_traitsIcEEED2Ev, symObjAddr: 0x2038, symBinAddr: 0x100003E48, symSize: 0x9C }
  - { offsetInCU: 0xF42D, offset: 0xF42D, size: 0x8, addend: 0x0, symName: __ZTv0_n24_NSt3__114basic_ifstreamIcNS_11char_traitsIcEEED1Ev, symObjAddr: 0x20D4, symBinAddr: 0x100003EE4, symSize: 0x28 }
  - { offsetInCU: 0xF444, offset: 0xF444, size: 0x8, addend: 0x0, symName: __ZNSt3__18ios_base4setfB8ue170006Ejj, symObjAddr: 0x20FC, symBinAddr: 0x100003F0C, symSize: 0x5C }
  - { offsetInCU: 0xF497, offset: 0xF497, size: 0x8, addend: 0x0, symName: __ZNSt3__18ios_base6unsetfB8ue170006Ej, symObjAddr: 0x2158, symBinAddr: 0x100003F68, symSize: 0x28 }
  - { offsetInCU: 0xF4CD, offset: 0xF4CD, size: 0x8, addend: 0x0, symName: __ZNSt3__18__iom_t6C1B8ue170006Ei, symObjAddr: 0x2180, symBinAddr: 0x100003F90, symSize: 0x34 }
  - { offsetInCU: 0xF504, offset: 0xF504, size: 0x8, addend: 0x0, symName: __ZNSt3__18__iom_t6C2B8ue170006Ei, symObjAddr: 0x21B4, symBinAddr: 0x100003FC4, symSize: 0x20 }
  - { offsetInCU: 0xF53B, offset: 0xF53B, size: 0x8, addend: 0x0, symName: __ZN7MaxHeapC2Ev, symObjAddr: 0x21D4, symBinAddr: 0x100003FE4, symSize: 0x2C }
  - { offsetInCU: 0xF564, offset: 0xF564, size: 0x8, addend: 0x0, symName: __ZN7MaxHeap11pushHeapifyEi, symObjAddr: 0x2200, symBinAddr: 0x100004010, symSize: 0xF8 }
  - { offsetInCU: 0xF597, offset: 0xF597, size: 0x8, addend: 0x0, symName: __ZNKSt3__16vectorI6RecordNS_9allocatorIS1_EEE4sizeB8ue170006Ev, symObjAddr: 0x22F8, symBinAddr: 0x100004108, symSize: 0x28 }
  - { offsetInCU: 0xF5BC, offset: 0xF5BC, size: 0x8, addend: 0x0, symName: __ZNSt3__16vectorI6RecordNS_9allocatorIS1_EEEixB8ue170006Em, symObjAddr: 0x2320, symBinAddr: 0x100004130, symSize: 0x2C }
  - { offsetInCU: 0xF5F2, offset: 0xF5F2, size: 0x8, addend: 0x0, symName: __ZNK7MaxHeap6parentEi, symObjAddr: 0x234C, symBinAddr: 0x10000415C, symSize: 0x24 }
  - { offsetInCU: 0xF625, offset: 0xF625, size: 0x8, addend: 0x0, symName: __ZN6RecordC1ERKS_, symObjAddr: 0x2404, symBinAddr: 0x100004214, symSize: 0x34 }
  - { offsetInCU: 0xF659, offset: 0xF659, size: 0x8, addend: 0x0, symName: __ZN6RecordaSERKS_, symObjAddr: 0x2438, symBinAddr: 0x100004248, symSize: 0xF8 }
  - { offsetInCU: 0xF689, offset: 0xF689, size: 0x8, addend: 0x0, symName: __ZN6RecordC2ERKS_, symObjAddr: 0x2530, symBinAddr: 0x100004340, symSize: 0x240 }
  - { offsetInCU: 0xF6BD, offset: 0xF6BD, size: 0x8, addend: 0x0, symName: __ZNSt3__16vectorINS_12basic_stringIcNS_11char_traitsIcEENS_9allocatorIcEEEENS4_IS6_EEEC1ERKS8_, symObjAddr: 0x2770, symBinAddr: 0x100004580, symSize: 0x34 }
  - { offsetInCU: 0xF6F7, offset: 0xF6F7, size: 0x8, addend: 0x0, symName: __ZNSt3__16vectorINS_12basic_stringIcNS_11char_traitsIcEENS_9allocatorIcEEEENS4_IS6_EEEC2ERKS8_, symObjAddr: 0x27A4, symBinAddr: 0x1000045B4, symSize: 0x94 }
  - { offsetInCU: 0xF73B, offset: 0xF73B, size: 0x8, addend: 0x0, symName: __ZNSt3__116allocator_traitsINS_9allocatorINS_12basic_stringIcNS_11char_traitsIcEENS1_IcEEEEEEE37select_on_container_copy_constructionB8ue170006IS7_vvEES7_RKS7_, symObjAddr: 0x2838, symBinAddr: 0x100004648, symSize: 0x10 }
  - { offsetInCU: 0xF76A, offset: 0xF76A, size: 0x8, addend: 0x0, symName: __ZNKSt3__16vectorINS_12basic_stringIcNS_11char_traitsIcEENS_9allocatorIcEEEENS4_IS6_EEE7__allocB8ue170006Ev, symObjAddr: 0x2848, symBinAddr: 0x100004658, symSize: 0x28 }
  - { offsetInCU: 0xF799, offset: 0xF799, size: 0x8, addend: 0x0, symName: __ZNSt3__117__compressed_pairIPNS_12basic_stringIcNS_11char_traitsIcEENS_9allocatorIcEEEENS4_IS6_EEEC1B8ue170006IDnS8_EEOT_OT0_, symObjAddr: 0x2870, symBinAddr: 0x100004680, symSize: 0x3C }
  - { offsetInCU: 0xF7F0, offset: 0xF7F0, size: 0x8, addend: 0x0, symName: __ZNSt3__16vectorINS_12basic_stringIcNS_11char_traitsIcEENS_9allocatorIcEEEENS4_IS6_EEE16__init_with_sizeB8ue170006IPS6_SA_EEvT_T0_m, symObjAddr: 0x28AC, symBinAddr: 0x1000046BC, symSize: 0xC0 }
  - { offsetInCU: 0xF863, offset: 0xF863, size: 0x8, addend: 0x0, symName: __ZNKSt3__117__compressed_pairIPNS_12basic_stringIcNS_11char_traitsIcEENS_9allocatorIcEEEENS4_IS6_EEE6secondB8ue170006Ev, symObjAddr: 0x296C, symBinAddr: 0x10000477C, symSize: 0x24 }
  - { offsetInCU: 0xF888, offset: 0xF888, size: 0x8, addend: 0x0, symName: __ZNKSt3__122__compressed_pair_elemINS_9allocatorINS_12basic_stringIcNS_11char_traitsIcEENS1_IcEEEEEELi1ELb1EE5__getB8ue170006Ev, symObjAddr: 0x2990, symBinAddr: 0x1000047A0, symSize: 0x14 }
  - { offsetInCU: 0xF8AD, offset: 0xF8AD, size: 0x8, addend: 0x0, symName: __ZNSt3__117__compressed_pairIPNS_12basic_stringIcNS_11char_traitsIcEENS_9allocatorIcEEEENS4_IS6_EEEC2B8ue170006IDnS8_EEOT_OT0_, symObjAddr: 0x29A4, symBinAddr: 0x1000047B4, symSize: 0x44 }
  - { offsetInCU: 0xF904, offset: 0xF904, size: 0x8, addend: 0x0, symName: __ZNSt3__122__compressed_pair_elemIPNS_12basic_stringIcNS_11char_traitsIcEENS_9allocatorIcEEEELi0ELb0EEC2B8ue170006IDnvEEOT_, symObjAddr: 0x29E8, symBinAddr: 0x1000047F8, symSize: 0x1C }
  - { offsetInCU: 0xF945, offset: 0xF945, size: 0x8, addend: 0x0, symName: __ZNSt3__122__compressed_pair_elemINS_9allocatorINS_12basic_stringIcNS_11char_traitsIcEENS1_IcEEEEEELi1ELb1EEC2B8ue170006IS7_vEEOT_, symObjAddr: 0x2A04, symBinAddr: 0x100004814, symSize: 0x18 }
  - { offsetInCU: 0xF986, offset: 0xF986, size: 0x8, addend: 0x0, symName: __ZNSt3__16vectorINS_12basic_stringIcNS_11char_traitsIcEENS_9allocatorIcEEEENS4_IS6_EEE16__destroy_vectorC1B8ue170006ERS8_, symObjAddr: 0x2A5C, symBinAddr: 0x10000486C, symSize: 0x34 }
  - { offsetInCU: 0xF9BE, offset: 0xF9BE, size: 0x8, addend: 0x0, symName: __ZNSt3__16vectorINS_12basic_stringIcNS_11char_traitsIcEENS_9allocatorIcEEEENS4_IS6_EEE11__vallocateB8ue170006Em, symObjAddr: 0x2A90, symBinAddr: 0x1000048A0, symSize: 0xB4 }
  - { offsetInCU: 0xFA01, offset: 0xFA01, size: 0x8, addend: 0x0, symName: __ZNSt3__16vectorINS_12basic_stringIcNS_11char_traitsIcEENS_9allocatorIcEEEENS4_IS6_EEE18__construct_at_endIPS6_SA_EEvT_T0_m, symObjAddr: 0x2B44, symBinAddr: 0x100004954, symSize: 0x94 }
  - { offsetInCU: 0xFA75, offset: 0xFA75, size: 0x8, addend: 0x0, symName: __ZNSt3__128__exception_guard_exceptionsINS_6vectorINS_12basic_stringIcNS_11char_traitsIcEENS_9allocatorIcEEEENS5_IS7_EEE16__destroy_vectorEE10__completeB8ue170006Ev, symObjAddr: 0x2BD8, symBinAddr: 0x1000049E8, symSize: 0x1C }
  - { offsetInCU: 0xFA9A, offset: 0xFA9A, size: 0x8, addend: 0x0, symName: __ZNSt3__128__exception_guard_exceptionsINS_6vectorINS_12basic_stringIcNS_11char_traitsIcEENS_9allocatorIcEEEENS5_IS7_EEE16__destroy_vectorEED1B8ue170006Ev, symObjAddr: 0x2BF4, symBinAddr: 0x100004A04, symSize: 0x2C }
  - { offsetInCU: 0xFAC3, offset: 0xFAC3, size: 0x8, addend: 0x0, symName: __ZNSt3__128__exception_guard_exceptionsINS_6vectorINS_12basic_stringIcNS_11char_traitsIcEENS_9allocatorIcEEEENS5_IS7_EEE16__destroy_vectorEEC1B8ue170006ESA_, symObjAddr: 0x2C20, symBinAddr: 0x100004A30, symSize: 0x34 }
  - { offsetInCU: 0xFAFA, offset: 0xFAFA, size: 0x8, addend: 0x0, symName: __ZNSt3__128__exception_guard_exceptionsINS_6vectorINS_12basic_stringIcNS_11char_traitsIcEENS_9allocatorIcEEEENS5_IS7_EEE16__destroy_vectorEEC2B8ue170006ESA_, symObjAddr: 0x2C54, symBinAddr: 0x100004A64, symSize: 0x24 }
  - { offsetInCU: 0xFB31, offset: 0xFB31, size: 0x8, addend: 0x0, symName: __ZNSt3__16vectorINS_12basic_stringIcNS_11char_traitsIcEENS_9allocatorIcEEEENS4_IS6_EEE16__destroy_vectorC2B8ue170006ERS8_, symObjAddr: 0x2C78, symBinAddr: 0x100004A88, symSize: 0x20 }
  - { offsetInCU: 0xFB69, offset: 0xFB69, size: 0x8, addend: 0x0, symName: __ZNKSt3__16vectorINS_12basic_stringIcNS_11char_traitsIcEENS_9allocatorIcEEEENS4_IS6_EEE8max_sizeEv, symObjAddr: 0x2C98, symBinAddr: 0x100004AA8, symSize: 0x74 }
  - { offsetInCU: 0xFB8F, offset: 0xFB8F, size: 0x8, addend: 0x0, symName: __ZNKSt3__16vectorINS_12basic_stringIcNS_11char_traitsIcEENS_9allocatorIcEEEENS4_IS6_EEE20__throw_length_errorB8ue170006Ev, symObjAddr: 0x2D0C, symBinAddr: 0x100004B1C, symSize: 0x1C }
  - { offsetInCU: 0xFBB4, offset: 0xFBB4, size: 0x8, addend: 0x0, symName: __ZNSt3__16vectorINS_12basic_stringIcNS_11char_traitsIcEENS_9allocatorIcEEEENS4_IS6_EEE7__allocB8ue170006Ev, symObjAddr: 0x2D68, symBinAddr: 0x100004B78, symSize: 0x28 }
  - { offsetInCU: 0xFBD9, offset: 0xFBD9, size: 0x8, addend: 0x0, symName: __ZNSt3__16vectorINS_12basic_stringIcNS_11char_traitsIcEENS_9allocatorIcEEEENS4_IS6_EEE9__end_capB8ue170006Ev, symObjAddr: 0x2D90, symBinAddr: 0x100004BA0, symSize: 0x28 }
  - { offsetInCU: 0xFBFE, offset: 0xFBFE, size: 0x8, addend: 0x0, symName: __ZNKSt3__16vectorINS_12basic_stringIcNS_11char_traitsIcEENS_9allocatorIcEEEENS4_IS6_EEE14__annotate_newB8ue170006Em, symObjAddr: 0x2DB8, symBinAddr: 0x100004BC8, symSize: 0xC8 }
  - { offsetInCU: 0xFC32, offset: 0xFC32, size: 0x8, addend: 0x0, symName: __ZNSt3__116allocator_traitsINS_9allocatorINS_12basic_stringIcNS_11char_traitsIcEENS1_IcEEEEEEE8max_sizeB8ue170006IS7_vEEmRKS7_, symObjAddr: 0x2EAC, symBinAddr: 0x100004CBC, symSize: 0x24 }
  - { offsetInCU: 0xFC60, offset: 0xFC60, size: 0x8, addend: 0x0, symName: __ZNSt3__114numeric_limitsIlE3maxB8ue170006Ev, symObjAddr: 0x2ED0, symBinAddr: 0x100004CE0, symSize: 0x14 }
  - { offsetInCU: 0xFC88, offset: 0xFC88, size: 0x8, addend: 0x0, symName: __ZNKSt3__16__lessIvvEclB8ue170006ImmEEbRKT_RKT0_, symObjAddr: 0x2F38, symBinAddr: 0x100004D48, symSize: 0x34 }
  - { offsetInCU: 0xFCDB, offset: 0xFCDB, size: 0x8, addend: 0x0, symName: __ZNKSt3__19allocatorINS_12basic_stringIcNS_11char_traitsIcEENS0_IcEEEEE8max_sizeB8ue170006Ev, symObjAddr: 0x2F6C, symBinAddr: 0x100004D7C, symSize: 0x18 }
  - { offsetInCU: 0xFD00, offset: 0xFD00, size: 0x8, addend: 0x0, symName: __ZNSt3__123__libcpp_numeric_limitsIlLb1EE3maxB8ue170006Ev, symObjAddr: 0x2F84, symBinAddr: 0x100004D94, symSize: 0x8 }
  - { offsetInCU: 0xFD14, offset: 0xFD14, size: 0x8, addend: 0x0, symName: __ZNSt12length_errorC1B8ue170006EPKc, symObjAddr: 0x2FF0, symBinAddr: 0x100004E00, symSize: 0x34 }
  - { offsetInCU: 0xFD4B, offset: 0xFD4B, size: 0x8, addend: 0x0, symName: __ZNSt12length_errorC2B8ue170006EPKc, symObjAddr: 0x3024, symBinAddr: 0x100004E34, symSize: 0x4C }
  - { offsetInCU: 0xFD82, offset: 0xFD82, size: 0x8, addend: 0x0, symName: __ZNSt3__19allocatorINS_12basic_stringIcNS_11char_traitsIcEENS0_IcEEEEE8allocateB8ue170006Em, symObjAddr: 0x3070, symBinAddr: 0x100004E80, symSize: 0x8C }
  - { offsetInCU: 0xFDB5, offset: 0xFDB5, size: 0x8, addend: 0x0, symName: __ZNSt3__117__compressed_pairIPNS_12basic_stringIcNS_11char_traitsIcEENS_9allocatorIcEEEENS4_IS6_EEE6secondB8ue170006Ev, symObjAddr: 0x3188, symBinAddr: 0x100004F98, symSize: 0x24 }
  - { offsetInCU: 0xFDDA, offset: 0xFDDA, size: 0x8, addend: 0x0, symName: __ZNSt3__122__compressed_pair_elemINS_9allocatorINS_12basic_stringIcNS_11char_traitsIcEENS1_IcEEEEEELi1ELb1EE5__getB8ue170006Ev, symObjAddr: 0x31AC, symBinAddr: 0x100004FBC, symSize: 0x14 }
  - { offsetInCU: 0xFDFF, offset: 0xFDFF, size: 0x8, addend: 0x0, symName: __ZNSt3__117__compressed_pairIPNS_12basic_stringIcNS_11char_traitsIcEENS_9allocatorIcEEEENS4_IS6_EEE5firstB8ue170006Ev, symObjAddr: 0x31C0, symBinAddr: 0x100004FD0, symSize: 0x24 }
  - { offsetInCU: 0xFE24, offset: 0xFE24, size: 0x8, addend: 0x0, symName: __ZNSt3__122__compressed_pair_elemIPNS_12basic_stringIcNS_11char_traitsIcEENS_9allocatorIcEEEELi0ELb0EE5__getB8ue170006Ev, symObjAddr: 0x31E4, symBinAddr: 0x100004FF4, symSize: 0x14 }
  - { offsetInCU: 0xFE49, offset: 0xFE49, size: 0x8, addend: 0x0, symName: __ZNKSt3__16vectorINS_12basic_stringIcNS_11char_traitsIcEENS_9allocatorIcEEEENS4_IS6_EEE31__annotate_contiguous_containerB8ue170006EPKvSA_SA_SA_, symObjAddr: 0x31F8, symBinAddr: 0x100005008, symSize: 0x20 }
  - { offsetInCU: 0xFE9E, offset: 0xFE9E, size: 0x8, addend: 0x0, symName: __ZNKSt3__16vectorINS_12basic_stringIcNS_11char_traitsIcEENS_9allocatorIcEEEENS4_IS6_EEE4dataB8ue170006Ev, symObjAddr: 0x3218, symBinAddr: 0x100005028, symSize: 0x28 }
  - { offsetInCU: 0xFEC3, offset: 0xFEC3, size: 0x8, addend: 0x0, symName: __ZNKSt3__16vectorINS_12basic_stringIcNS_11char_traitsIcEENS_9allocatorIcEEEENS4_IS6_EEE8capacityB8ue170006Ev, symObjAddr: 0x3240, symBinAddr: 0x100005050, symSize: 0x40 }
  - { offsetInCU: 0xFEE8, offset: 0xFEE8, size: 0x8, addend: 0x0, symName: __ZNKSt3__16vectorINS_12basic_stringIcNS_11char_traitsIcEENS_9allocatorIcEEEENS4_IS6_EEE9__end_capB8ue170006Ev, symObjAddr: 0x3294, symBinAddr: 0x1000050A4, symSize: 0x28 }
  - { offsetInCU: 0xFF0D, offset: 0xFF0D, size: 0x8, addend: 0x0, symName: __ZNKSt3__117__compressed_pairIPNS_12basic_stringIcNS_11char_traitsIcEENS_9allocatorIcEEEENS4_IS6_EEE5firstB8ue170006Ev, symObjAddr: 0x32BC, symBinAddr: 0x1000050CC, symSize: 0x24 }
  - { offsetInCU: 0xFF32, offset: 0xFF32, size: 0x8, addend: 0x0, symName: __ZNKSt3__122__compressed_pair_elemIPNS_12basic_stringIcNS_11char_traitsIcEENS_9allocatorIcEEEELi0ELb0EE5__getB8ue170006Ev, symObjAddr: 0x32E0, symBinAddr: 0x1000050F0, symSize: 0x14 }
  - { offsetInCU: 0xFF70, offset: 0xFF70, size: 0x8, addend: 0x0, symName: __ZNSt3__16vectorINS_12basic_stringIcNS_11char_traitsIcEENS_9allocatorIcEEEENS4_IS6_EEE21_ConstructTransactionC1B8ue170006ERS8_m, symObjAddr: 0x32F4, symBinAddr: 0x100005104, symSize: 0x3C }
  - { offsetInCU: 0xFFB7, offset: 0xFFB7, size: 0x8, addend: 0x0, symName: __ZNSt3__16vectorINS_12basic_stringIcNS_11char_traitsIcEENS_9allocatorIcEEEENS4_IS6_EEE21_ConstructTransactionD1B8ue170006Ev, symObjAddr: 0x33B0, symBinAddr: 0x1000051C0, symSize: 0x2C }
  - { offsetInCU: 0xFFE0, offset: 0xFFE0, size: 0x8, addend: 0x0, symName: __ZNSt3__16vectorINS_12basic_stringIcNS_11char_traitsIcEENS_9allocatorIcEEEENS4_IS6_EEE21_ConstructTransactionC2B8ue170006ERS8_m, symObjAddr: 0x33DC, symBinAddr: 0x1000051EC, symSize: 0x4C }
  - { offsetInCU: 0x10040, offset: 0x10040, size: 0x8, addend: 0x0, symName: __ZNSt3__14pairIPNS_12basic_stringIcNS_11char_traitsIcEENS_9allocatorIcEEEES7_EC1B8ue170006ERKS7_SA_, symObjAddr: 0x3630, symBinAddr: 0x100005440, symSize: 0x3C }
  - { offsetInCU: 0x10085, offset: 0x10085, size: 0x8, addend: 0x0, symName: __ZNSt3__14pairIPNS_12basic_stringIcNS_11char_traitsIcEENS_9allocatorIcEEEES7_EC2B8ue170006ERKS7_SA_, symObjAddr: 0x366C, symBinAddr: 0x10000547C, symSize: 0x34 }
  - { offsetInCU: 0x100CA, offset: 0x100CA, size: 0x8, addend: 0x0, symName: __ZNSt3__129_AllocatorDestroyRangeReverseINS_9allocatorINS_12basic_stringIcNS_11char_traitsIcEENS1_IcEEEEEEPS6_EC1B8ue170006ERS7_RS8_SB_, symObjAddr: 0x36EC, symBinAddr: 0x1000054FC, symSize: 0x44 }
  - { offsetInCU: 0x10120, offset: 0x10120, size: 0x8, addend: 0x0, symName: __ZNSt3__116allocator_traitsINS_9allocatorINS_12basic_stringIcNS_11char_traitsIcEENS1_IcEEEEEEE9constructB8ue170006IS6_JRS6_EvEEvRS7_PT_DpOT0_, symObjAddr: 0x3730, symBinAddr: 0x100005540, symSize: 0x34 }
  - { offsetInCU: 0x10177, offset: 0x10177, size: 0x8, addend: 0x0, symName: __ZNSt3__128__exception_guard_exceptionsINS_29_AllocatorDestroyRangeReverseINS_9allocatorINS_12basic_stringIcNS_11char_traitsIcEENS2_IcEEEEEEPS7_EEE10__completeB8ue170006Ev, symObjAddr: 0x3764, symBinAddr: 0x100005574, symSize: 0x1C }
  - { offsetInCU: 0x1019C, offset: 0x1019C, size: 0x8, addend: 0x0, symName: __ZNSt3__128__exception_guard_exceptionsINS_29_AllocatorDestroyRangeReverseINS_9allocatorINS_12basic_stringIcNS_11char_traitsIcEENS2_IcEEEEEEPS7_EEED1B8ue170006Ev, symObjAddr: 0x3780, symBinAddr: 0x100005590, symSize: 0x2C }
  - { offsetInCU: 0x101C5, offset: 0x101C5, size: 0x8, addend: 0x0, symName: __ZNSt3__128__exception_guard_exceptionsINS_29_AllocatorDestroyRangeReverseINS_9allocatorINS_12basic_stringIcNS_11char_traitsIcEENS2_IcEEEEEEPS7_EEEC1B8ue170006ESA_, symObjAddr: 0x37AC, symBinAddr: 0x1000055BC, symSize: 0x34 }
  - { offsetInCU: 0x101FD, offset: 0x101FD, size: 0x8, addend: 0x0, symName: __ZNSt3__128__exception_guard_exceptionsINS_29_AllocatorDestroyRangeReverseINS_9allocatorINS_12basic_stringIcNS_11char_traitsIcEENS2_IcEEEEEEPS7_EEEC2B8ue170006ESA_, symObjAddr: 0x37E0, symBinAddr: 0x1000055F0, symSize: 0x30 }
  - { offsetInCU: 0x10235, offset: 0x10235, size: 0x8, addend: 0x0, symName: __ZNSt3__129_AllocatorDestroyRangeReverseINS_9allocatorINS_12basic_stringIcNS_11char_traitsIcEENS1_IcEEEEEEPS6_EC2B8ue170006ERS7_RS8_SB_, symObjAddr: 0x3810, symBinAddr: 0x100005620, symSize: 0x38 }
  - { offsetInCU: 0x1028B, offset: 0x1028B, size: 0x8, addend: 0x0, symName: __ZNSt3__19allocatorINS_12basic_stringIcNS_11char_traitsIcEENS0_IcEEEEE9constructB8ue170006IS5_JRS5_EEEvPT_DpOT0_, symObjAddr: 0x3848, symBinAddr: 0x100005658, symSize: 0x30 }
  - { offsetInCU: 0x102E0, offset: 0x102E0, size: 0x8, addend: 0x0, symName: __ZNSt3__128__exception_guard_exceptionsINS_29_AllocatorDestroyRangeReverseINS_9allocatorINS_12basic_stringIcNS_11char_traitsIcEENS2_IcEEEEEEPS7_EEED2B8ue170006Ev, symObjAddr: 0x3878, symBinAddr: 0x100005688, symSize: 0x48 }
  - { offsetInCU: 0x10309, offset: 0x10309, size: 0x8, addend: 0x0, symName: __ZNKSt3__129_AllocatorDestroyRangeReverseINS_9allocatorINS_12basic_stringIcNS_11char_traitsIcEENS1_IcEEEEEEPS6_EclB8ue170006Ev, symObjAddr: 0x38C0, symBinAddr: 0x1000056D0, symSize: 0x68 }
  - { offsetInCU: 0x1032E, offset: 0x1032E, size: 0x8, addend: 0x0, symName: __ZNSt3__116reverse_iteratorIPNS_12basic_stringIcNS_11char_traitsIcEENS_9allocatorIcEEEEEC1B8ue170006ES7_, symObjAddr: 0x3998, symBinAddr: 0x1000057A8, symSize: 0x34 }
  - { offsetInCU: 0x10365, offset: 0x10365, size: 0x8, addend: 0x0, symName: __ZNSt3__116allocator_traitsINS_9allocatorINS_12basic_stringIcNS_11char_traitsIcEENS1_IcEEEEEEE7destroyB8ue170006IS6_vEEvRS7_PT_, symObjAddr: 0x3A14, symBinAddr: 0x100005824, symSize: 0x2C }
  - { offsetInCU: 0x103A2, offset: 0x103A2, size: 0x8, addend: 0x0, symName: __ZNSt3__116reverse_iteratorIPNS_12basic_stringIcNS_11char_traitsIcEENS_9allocatorIcEEEEEppB8ue170006Ev, symObjAddr: 0x3A64, symBinAddr: 0x100005874, symSize: 0x20 }
  - { offsetInCU: 0x103C7, offset: 0x103C7, size: 0x8, addend: 0x0, symName: __ZNKSt3__116reverse_iteratorIPNS_12basic_stringIcNS_11char_traitsIcEENS_9allocatorIcEEEEE4baseB8ue170006Ev, symObjAddr: 0x3A84, symBinAddr: 0x100005894, symSize: 0x18 }
  - { offsetInCU: 0x103EC, offset: 0x103EC, size: 0x8, addend: 0x0, symName: __ZNSt3__19allocatorINS_12basic_stringIcNS_11char_traitsIcEENS0_IcEEEEE7destroyB8ue170006EPS5_, symObjAddr: 0x3A9C, symBinAddr: 0x1000058AC, symSize: 0x28 }
  - { offsetInCU: 0x10424, offset: 0x10424, size: 0x8, addend: 0x0, symName: __ZNSt3__119__to_address_helperINS_16reverse_iteratorIPNS_12basic_stringIcNS_11char_traitsIcEENS_9allocatorIcEEEEEEvE6__callB8ue170006ERKS9_, symObjAddr: 0x3AC4, symBinAddr: 0x1000058D4, symSize: 0x4C }
  - { offsetInCU: 0x10447, offset: 0x10447, size: 0x8, addend: 0x0, symName: __ZNKSt3__116reverse_iteratorIPNS_12basic_stringIcNS_11char_traitsIcEENS_9allocatorIcEEEEEptB8ue170006Ev, symObjAddr: 0x3B10, symBinAddr: 0x100005920, symSize: 0x24 }
  - { offsetInCU: 0x1046C, offset: 0x1046C, size: 0x8, addend: 0x0, symName: __ZNKSt3__116reverse_iteratorIPNS_12basic_stringIcNS_11char_traitsIcEENS_9allocatorIcEEEEEdeB8ue170006Ev, symObjAddr: 0x3B34, symBinAddr: 0x100005944, symSize: 0x28 }
  - { offsetInCU: 0x1049F, offset: 0x1049F, size: 0x8, addend: 0x0, symName: __ZNSt3__116reverse_iteratorIPNS_12basic_stringIcNS_11char_traitsIcEENS_9allocatorIcEEEEEC2B8ue170006ES7_, symObjAddr: 0x3B5C, symBinAddr: 0x10000596C, symSize: 0x28 }
  - { offsetInCU: 0x104D6, offset: 0x104D6, size: 0x8, addend: 0x0, symName: __ZNSt3__118__unwrap_iter_implIPNS_12basic_stringIcNS_11char_traitsIcEENS_9allocatorIcEEEELb1EE8__unwrapB8ue170006ES7_, symObjAddr: 0x3B84, symBinAddr: 0x100005994, symSize: 0x24 }
  - { offsetInCU: 0x104F9, offset: 0x104F9, size: 0x8, addend: 0x0, symName: __ZNSt3__118__unwrap_iter_implIPNS_12basic_stringIcNS_11char_traitsIcEENS_9allocatorIcEEEELb1EE8__rewrapB8ue170006ES7_S7_, symObjAddr: 0x3BA8, symBinAddr: 0x1000059B8, symSize: 0x58 }
  - { offsetInCU: 0x1052A, offset: 0x1052A, size: 0x8, addend: 0x0, symName: __ZNSt3__16vectorINS_12basic_stringIcNS_11char_traitsIcEENS_9allocatorIcEEEENS4_IS6_EEE21_ConstructTransactionD2B8ue170006Ev, symObjAddr: 0x3C00, symBinAddr: 0x100005A10, symSize: 0x20 }
  - { offsetInCU: 0x10553, offset: 0x10553, size: 0x8, addend: 0x0, symName: __ZNSt3__128__exception_guard_exceptionsINS_6vectorINS_12basic_stringIcNS_11char_traitsIcEENS_9allocatorIcEEEENS5_IS7_EEE16__destroy_vectorEED2B8ue170006Ev, symObjAddr: 0x3C20, symBinAddr: 0x100005A30, symSize: 0x48 }
  - { offsetInCU: 0x1057C, offset: 0x1057C, size: 0x8, addend: 0x0, symName: __ZNSt3__16vectorINS_12basic_stringIcNS_11char_traitsIcEENS_9allocatorIcEEEENS4_IS6_EEE16__destroy_vectorclB8ue170006Ev, symObjAddr: 0x3C68, symBinAddr: 0x100005A78, symSize: 0x90 }
  - { offsetInCU: 0x105A1, offset: 0x105A1, size: 0x8, addend: 0x0, symName: __ZNSt3__16vectorINS_12basic_stringIcNS_11char_traitsIcEENS_9allocatorIcEEEENS4_IS6_EEE7__clearB8ue170006Ev, symObjAddr: 0x3CF8, symBinAddr: 0x100005B08, symSize: 0x28 }
  - { offsetInCU: 0x105C6, offset: 0x105C6, size: 0x8, addend: 0x0, symName: __ZNKSt3__16vectorINS_12basic_stringIcNS_11char_traitsIcEENS_9allocatorIcEEEENS4_IS6_EEE17__annotate_deleteB8ue170006Ev, symObjAddr: 0x3D20, symBinAddr: 0x100005B30, symSize: 0xD4 }
  - { offsetInCU: 0x105EB, offset: 0x105EB, size: 0x8, addend: 0x0, symName: __ZNSt3__116allocator_traitsINS_9allocatorINS_12basic_stringIcNS_11char_traitsIcEENS1_IcEEEEEEE10deallocateB8ue170006ERS7_PS6_m, symObjAddr: 0x3DF4, symBinAddr: 0x100005C04, symSize: 0x34 }
  - { offsetInCU: 0x1062D, offset: 0x1062D, size: 0x8, addend: 0x0, symName: __ZNSt3__16vectorINS_12basic_stringIcNS_11char_traitsIcEENS_9allocatorIcEEEENS4_IS6_EEE22__base_destruct_at_endB8ue170006EPS6_, symObjAddr: 0x3E28, symBinAddr: 0x100005C38, symSize: 0xA0 }
  - { offsetInCU: 0x10670, offset: 0x10670, size: 0x8, addend: 0x0, symName: __ZNSt3__19allocatorINS_12basic_stringIcNS_11char_traitsIcEENS0_IcEEEEE10deallocateB8ue170006EPS5_m, symObjAddr: 0x3EC8, symBinAddr: 0x100005CD8, symSize: 0x74 }
  - { offsetInCU: 0x106B1, offset: 0x106B1, size: 0x8, addend: 0x0, symName: __ZNSt3__16vectorINS_12basic_stringIcNS_11char_traitsIcEENS_9allocatorIcEEEENS4_IS6_EEEaSB8ue170006ERKS8_, symObjAddr: 0x3FB8, symBinAddr: 0x100005DC8, symSize: 0x68 }
  - { offsetInCU: 0x106E6, offset: 0x106E6, size: 0x8, addend: 0x0, symName: __ZNSt3__16vectorINS_12basic_stringIcNS_11char_traitsIcEENS_9allocatorIcEEEENS4_IS6_EEE19__copy_assign_allocB8ue170006ERKS8_, symObjAddr: 0x4020, symBinAddr: 0x100005E30, symSize: 0x2C }
  - { offsetInCU: 0x1071A, offset: 0x1071A, size: 0x8, addend: 0x0, symName: __ZNSt3__16vectorINS_12basic_stringIcNS_11char_traitsIcEENS_9allocatorIcEEEENS4_IS6_EEE6assignIPS6_Li0EEEvT_SB_, symObjAddr: 0x404C, symBinAddr: 0x100005E5C, symSize: 0x5C }
  - { offsetInCU: 0x1076D, offset: 0x1076D, size: 0x8, addend: 0x0, symName: __ZNSt3__16vectorINS_12basic_stringIcNS_11char_traitsIcEENS_9allocatorIcEEEENS4_IS6_EEE19__copy_assign_allocB8ue170006ERKS8_NS_17integral_constantIbLb0EEE, symObjAddr: 0x40A8, symBinAddr: 0x100005EB8, symSize: 0x14 }
  - { offsetInCU: 0x107AA, offset: 0x107AA, size: 0x8, addend: 0x0, symName: __ZNSt3__16vectorINS_12basic_stringIcNS_11char_traitsIcEENS_9allocatorIcEEEENS4_IS6_EEE18__assign_with_sizeB8ue170006IPS6_SA_EEvT_T0_l, symObjAddr: 0x40BC, symBinAddr: 0x100005ECC, symSize: 0x164 }
  - { offsetInCU: 0x1085A, offset: 0x1085A, size: 0x8, addend: 0x0, symName: __ZNSt3__16vectorINS_12basic_stringIcNS_11char_traitsIcEENS_9allocatorIcEEEENS4_IS6_EEE17__destruct_at_endB8ue170006EPS6_, symObjAddr: 0x4304, symBinAddr: 0x100006114, symSize: 0x4C }
  - { offsetInCU: 0x1089D, offset: 0x1089D, size: 0x8, addend: 0x0, symName: __ZNSt3__16vectorINS_12basic_stringIcNS_11char_traitsIcEENS_9allocatorIcEEEENS4_IS6_EEE13__vdeallocateEv, symObjAddr: 0x4350, symBinAddr: 0x100006160, symSize: 0x94 }
  - { offsetInCU: 0x108C3, offset: 0x108C3, size: 0x8, addend: 0x0, symName: __ZNKSt3__16vectorINS_12basic_stringIcNS_11char_traitsIcEENS_9allocatorIcEEEENS4_IS6_EEE11__recommendB8ue170006Em, symObjAddr: 0x43E4, symBinAddr: 0x1000061F4, symSize: 0xB4 }
  - { offsetInCU: 0x10920, offset: 0x10920, size: 0x8, addend: 0x0, symName: __ZNKSt3__111__copy_loopINS_17_ClassicAlgPolicyEEclB8ue170006IPNS_12basic_stringIcNS_11char_traitsIcEENS_9allocatorIcEEEESA_SA_EENS_4pairIT_T1_EESC_T0_SD_, symObjAddr: 0x460C, symBinAddr: 0x10000641C, symSize: 0x88 }
  - { offsetInCU: 0x1098A, offset: 0x1098A, size: 0x8, addend: 0x0, symName: __ZNKSt3__16vectorINS_12basic_stringIcNS_11char_traitsIcEENS_9allocatorIcEEEENS4_IS6_EEE17__annotate_shrinkB8ue170006Em, symObjAddr: 0x46C0, symBinAddr: 0x1000064D0, symSize: 0xD0 }
  - { offsetInCU: 0x109BE, offset: 0x109BE, size: 0x8, addend: 0x0, symName: __ZNSt3__16vectorINS_12basic_stringIcNS_11char_traitsIcEENS_9allocatorIcEEEENS4_IS6_EEE5clearB8ue170006Ev, symObjAddr: 0x4790, symBinAddr: 0x1000065A0, symSize: 0x44 }
  - { offsetInCU: 0x109F2, offset: 0x109F2, size: 0x8, addend: 0x0, symName: __ZNKSt3__16vectorI6RecordNS_9allocatorIS1_EEE5emptyB8ue170006Ev, symObjAddr: 0x487C, symBinAddr: 0x10000668C, symSize: 0x28 }
  - { offsetInCU: 0x10A17, offset: 0x10A17, size: 0x8, addend: 0x0, symName: __ZNSt3__16vectorI6RecordNS_9allocatorIS1_EEE5frontB8ue170006Ev, symObjAddr: 0x48A4, symBinAddr: 0x1000066B4, symSize: 0x18 }
  - { offsetInCU: 0x10A3C, offset: 0x10A3C, size: 0x8, addend: 0x0, symName: __ZNSt3__16vectorI6RecordNS_9allocatorIS1_EEE4backB8ue170006Ev, symObjAddr: 0x48BC, symBinAddr: 0x1000066CC, symSize: 0x1C }
  - { offsetInCU: 0x10A61, offset: 0x10A61, size: 0x8, addend: 0x0, symName: __ZNSt3__16vectorI6RecordNS_9allocatorIS1_EEE8pop_backEv, symObjAddr: 0x48D8, symBinAddr: 0x1000066E8, symSize: 0x2C }
  - { offsetInCU: 0x10A87, offset: 0x10A87, size: 0x8, addend: 0x0, symName: __ZN7MaxHeap10popHeapifyEi, symObjAddr: 0x4904, symBinAddr: 0x100006714, symSize: 0x180 }
  - { offsetInCU: 0x10AE4, offset: 0x10AE4, size: 0x8, addend: 0x0, symName: __ZNSt3__16vectorI6RecordNS_9allocatorIS1_EEE17__destruct_at_endB8ue170006EPS1_, symObjAddr: 0x4A84, symBinAddr: 0x100006894, symSize: 0x4C }
  - { offsetInCU: 0x10B27, offset: 0x10B27, size: 0x8, addend: 0x0, symName: __ZNSt3__16vectorI6RecordNS_9allocatorIS1_EEE22__base_destruct_at_endB8ue170006EPS1_, symObjAddr: 0x4AD0, symBinAddr: 0x1000068E0, symSize: 0xA0 }
  - { offsetInCU: 0x10B6A, offset: 0x10B6A, size: 0x8, addend: 0x0, symName: __ZNKSt3__16vectorI6RecordNS_9allocatorIS1_EEE17__annotate_shrinkB8ue170006Em, symObjAddr: 0x4B70, symBinAddr: 0x100006980, symSize: 0xD0 }
  - { offsetInCU: 0x10B9E, offset: 0x10B9E, size: 0x8, addend: 0x0, symName: __ZNSt3__116allocator_traitsINS_9allocatorI6RecordEEE7destroyB8ue170006IS2_vEEvRS3_PT_, symObjAddr: 0x4C40, symBinAddr: 0x100006A50, symSize: 0x2C }
  - { offsetInCU: 0x10BDB, offset: 0x10BDB, size: 0x8, addend: 0x0, symName: __ZNSt3__16vectorI6RecordNS_9allocatorIS1_EEE7__allocB8ue170006Ev, symObjAddr: 0x4C6C, symBinAddr: 0x100006A7C, symSize: 0x28 }
  - { offsetInCU: 0x10C00, offset: 0x10C00, size: 0x8, addend: 0x0, symName: __ZNSt3__19allocatorI6RecordE7destroyB8ue170006EPS1_, symObjAddr: 0x4CA8, symBinAddr: 0x100006AB8, symSize: 0x28 }
  - { offsetInCU: 0x10C33, offset: 0x10C33, size: 0x8, addend: 0x0, symName: __ZNSt3__117__compressed_pairIP6RecordNS_9allocatorIS1_EEE6secondB8ue170006Ev, symObjAddr: 0x4CD0, symBinAddr: 0x100006AE0, symSize: 0x24 }
  - { offsetInCU: 0x10C58, offset: 0x10C58, size: 0x8, addend: 0x0, symName: __ZNSt3__122__compressed_pair_elemINS_9allocatorI6RecordEELi1ELb1EE5__getB8ue170006Ev, symObjAddr: 0x4CF4, symBinAddr: 0x100006B04, symSize: 0x14 }
  - { offsetInCU: 0x10C7D, offset: 0x10C7D, size: 0x8, addend: 0x0, symName: __ZNKSt3__16vectorI6RecordNS_9allocatorIS1_EEE31__annotate_contiguous_containerB8ue170006EPKvS6_S6_S6_, symObjAddr: 0x4D08, symBinAddr: 0x100006B18, symSize: 0x20 }
  - { offsetInCU: 0x10CD2, offset: 0x10CD2, size: 0x8, addend: 0x0, symName: __ZNKSt3__16vectorI6RecordNS_9allocatorIS1_EEE4dataB8ue170006Ev, symObjAddr: 0x4D28, symBinAddr: 0x100006B38, symSize: 0x28 }
  - { offsetInCU: 0x10CF7, offset: 0x10CF7, size: 0x8, addend: 0x0, symName: __ZNKSt3__16vectorI6RecordNS_9allocatorIS1_EEE8capacityB8ue170006Ev, symObjAddr: 0x4D50, symBinAddr: 0x100006B60, symSize: 0x40 }
  - { offsetInCU: 0x10D1C, offset: 0x10D1C, size: 0x8, addend: 0x0, symName: __ZNKSt3__16vectorI6RecordNS_9allocatorIS1_EEE9__end_capB8ue170006Ev, symObjAddr: 0x4D90, symBinAddr: 0x100006BA0, symSize: 0x28 }
  - { offsetInCU: 0x10D41, offset: 0x10D41, size: 0x8, addend: 0x0, symName: __ZNKSt3__117__compressed_pairIP6RecordNS_9allocatorIS1_EEE5firstB8ue170006Ev, symObjAddr: 0x4DB8, symBinAddr: 0x100006BC8, symSize: 0x24 }
  - { offsetInCU: 0x10D66, offset: 0x10D66, size: 0x8, addend: 0x0, symName: __ZNKSt3__122__compressed_pair_elemIP6RecordLi0ELb0EE5__getB8ue170006Ev, symObjAddr: 0x4DDC, symBinAddr: 0x100006BEC, symSize: 0x14 }
  - { offsetInCU: 0x10D8B, offset: 0x10D8B, size: 0x8, addend: 0x0, symName: __ZNK7MaxHeap9leftChildEi, symObjAddr: 0x4DF0, symBinAddr: 0x100006C00, symSize: 0x24 }
  - { offsetInCU: 0x10DBE, offset: 0x10DBE, size: 0x8, addend: 0x0, symName: __ZNK7MaxHeap10rightChildEi, symObjAddr: 0x4E14, symBinAddr: 0x100006C24, symSize: 0x24 }
  - { offsetInCU: 0x10DF1, offset: 0x10DF1, size: 0x8, addend: 0x0, symName: __ZN7MaxHeapD2Ev, symObjAddr: 0x4E38, symBinAddr: 0x100006C48, symSize: 0x2C }
  - { offsetInCU: 0x10E1C, offset: 0x10E1C, size: 0x8, addend: 0x0, symName: __ZNSt3__19basic_iosIcNS_11char_traitsIcEEEC2B8ue170006Ev, symObjAddr: 0x4E64, symBinAddr: 0x100006C74, symSize: 0x44 }
  - { offsetInCU: 0x10E45, offset: 0x10E45, size: 0x8, addend: 0x0, symName: __ZNSt3__114basic_iostreamIcNS_11char_traitsIcEEEC2B8ue170006EPNS_15basic_streambufIcS2_EE, symObjAddr: 0x4EA8, symBinAddr: 0x100006CB8, symSize: 0xB4 }
  - { offsetInCU: 0x10E89, offset: 0x10E89, size: 0x8, addend: 0x0, symName: __ZNSt3__115basic_stringbufIcNS_11char_traitsIcEENS_9allocatorIcEEEC1B8ue170006ERKNS_12basic_stringIcS2_S4_EEj, symObjAddr: 0x4F5C, symBinAddr: 0x100006D6C, symSize: 0x3C }
  - { offsetInCU: 0x10ED0, offset: 0x10ED0, size: 0x8, addend: 0x0, symName: __ZNSt3__18ios_baseC2B8ue170006Ev, symObjAddr: 0x4F98, symBinAddr: 0x100006DA8, symSize: 0x24 }
  - { offsetInCU: 0x10EF9, offset: 0x10EF9, size: 0x8, addend: 0x0, symName: __ZNSt3__113basic_istreamIcNS_11char_traitsIcEEEC2B8ue170006EPNS_15basic_streambufIcS2_EE, symObjAddr: 0x4FBC, symBinAddr: 0x100006DCC, symSize: 0x64 }
  - { offsetInCU: 0x10F3C, offset: 0x10F3C, size: 0x8, addend: 0x0, symName: __ZNSt3__113basic_ostreamIcNS_11char_traitsIcEEEC2B8ue170006Ev, symObjAddr: 0x5020, symBinAddr: 0x100006E30, symSize: 0x34 }
  - { offsetInCU: 0x10F71, offset: 0x10F71, size: 0x8, addend: 0x0, symName: __ZNSt3__19basic_iosIcNS_11char_traitsIcEEE4initB8ue170006EPNS_15basic_streambufIcS2_EE, symObjAddr: 0x5054, symBinAddr: 0x100006E64, symSize: 0x44 }
  - { offsetInCU: 0x10FA6, offset: 0x10FA6, size: 0x8, addend: 0x0, symName: __ZNSt3__111char_traitsIcE3eofB8ue170006Ev, symObjAddr: 0x5098, symBinAddr: 0x100006EA8, symSize: 0x8 }
  - { offsetInCU: 0x10FBA, offset: 0x10FBA, size: 0x8, addend: 0x0, symName: __ZNSt3__115basic_stringbufIcNS_11char_traitsIcEENS_9allocatorIcEEEC2B8ue170006ERKNS_12basic_stringIcS2_S4_EEj, symObjAddr: 0x50A0, symBinAddr: 0x100006EB0, symSize: 0xD8 }
  - { offsetInCU: 0x11001, offset: 0x11001, size: 0x8, addend: 0x0, symName: __ZNKSt3__112basic_stringIcNS_11char_traitsIcEENS_9allocatorIcEEE13get_allocatorB8ue170006Ev, symObjAddr: 0x5178, symBinAddr: 0x100006F88, symSize: 0x24 }
  - { offsetInCU: 0x11026, offset: 0x11026, size: 0x8, addend: 0x0, symName: __ZNSt3__112basic_stringIcNS_11char_traitsIcEENS_9allocatorIcEEEC1B8ue170006ERKS4_, symObjAddr: 0x519C, symBinAddr: 0x100006FAC, symSize: 0x34 }
  - { offsetInCU: 0x1105E, offset: 0x1105E, size: 0x8, addend: 0x0, symName: __ZNKSt3__112basic_stringIcNS_11char_traitsIcEENS_9allocatorIcEEE7__allocB8ue170006Ev, symObjAddr: 0x51D0, symBinAddr: 0x100006FE0, symSize: 0x24 }
  - { offsetInCU: 0x11083, offset: 0x11083, size: 0x8, addend: 0x0, symName: __ZNKSt3__117__compressed_pairINS_12basic_stringIcNS_11char_traitsIcEENS_9allocatorIcEEE5__repES5_E6secondB8ue170006Ev, symObjAddr: 0x51F4, symBinAddr: 0x100007004, symSize: 0x24 }
  - { offsetInCU: 0x110A8, offset: 0x110A8, size: 0x8, addend: 0x0, symName: __ZNKSt3__122__compressed_pair_elemINS_9allocatorIcEELi1ELb1EE5__getB8ue170006Ev, symObjAddr: 0x5218, symBinAddr: 0x100007028, symSize: 0x14 }
  - { offsetInCU: 0x110CD, offset: 0x110CD, size: 0x8, addend: 0x0, symName: __ZNSt3__112basic_stringIcNS_11char_traitsIcEENS_9allocatorIcEEEC2B8ue170006ERKS4_, symObjAddr: 0x522C, symBinAddr: 0x10000703C, symSize: 0x40 }
  - { offsetInCU: 0x1110A, offset: 0x1110A, size: 0x8, addend: 0x0, symName: __ZNSt3__117__compressed_pairINS_12basic_stringIcNS_11char_traitsIcEENS_9allocatorIcEEE5__repES5_EC1B8ue170006INS_18__default_init_tagERKS5_EEOT_OT0_, symObjAddr: 0x526C, symBinAddr: 0x10000707C, symSize: 0x3C }
  - { offsetInCU: 0x11161, offset: 0x11161, size: 0x8, addend: 0x0, symName: __ZNSt3__112basic_stringIcNS_11char_traitsIcEENS_9allocatorIcEEE14__default_initB8ue170006Ev, symObjAddr: 0x52A8, symBinAddr: 0x1000070B8, symSize: 0xB0 }
  - { offsetInCU: 0x111B3, offset: 0x111B3, size: 0x8, addend: 0x0, symName: __ZNSt3__117__compressed_pairINS_12basic_stringIcNS_11char_traitsIcEENS_9allocatorIcEEE5__repES5_EC2B8ue170006INS_18__default_init_tagERKS5_EEOT_OT0_, symObjAddr: 0x5358, symBinAddr: 0x100007168, symSize: 0x40 }
  - { offsetInCU: 0x1120A, offset: 0x1120A, size: 0x8, addend: 0x0, symName: __ZNSt3__122__compressed_pair_elemINS_12basic_stringIcNS_11char_traitsIcEENS_9allocatorIcEEE5__repELi0ELb0EEC2B8ue170006ENS_18__default_init_tagE, symObjAddr: 0x5398, symBinAddr: 0x1000071A8, symSize: 0x14 }
  - { offsetInCU: 0x1123D, offset: 0x1123D, size: 0x8, addend: 0x0, symName: __ZNSt3__122__compressed_pair_elemINS_9allocatorIcEELi1ELb1EEC2B8ue170006IRKS2_vEEOT_, symObjAddr: 0x53AC, symBinAddr: 0x1000071BC, symSize: 0x18 }
  - { offsetInCU: 0x1127E, offset: 0x1127E, size: 0x8, addend: 0x0, symName: __ZNSt3__117__compressed_pairINS_12basic_stringIcNS_11char_traitsIcEENS_9allocatorIcEEE5__repES5_E5firstB8ue170006Ev, symObjAddr: 0x53C4, symBinAddr: 0x1000071D4, symSize: 0x24 }
  - { offsetInCU: 0x112A3, offset: 0x112A3, size: 0x8, addend: 0x0, symName: __ZNSt3__112basic_stringIcNS_11char_traitsIcEENS_9allocatorIcEEE11__recommendB8ue170006Em, symObjAddr: 0x53E8, symBinAddr: 0x1000071F8, symSize: 0x9C }
  - { offsetInCU: 0x112D6, offset: 0x112D6, size: 0x8, addend: 0x0, symName: __ZNSt3__116allocator_traitsINS_9allocatorIcEEE8allocateB8ue170006ERS2_m, symObjAddr: 0x5484, symBinAddr: 0x100007294, symSize: 0x2C }
  - { offsetInCU: 0x11309, offset: 0x11309, size: 0x8, addend: 0x0, symName: __ZNSt3__112basic_stringIcNS_11char_traitsIcEENS_9allocatorIcEEE7__allocB8ue170006Ev, symObjAddr: 0x54B0, symBinAddr: 0x1000072C0, symSize: 0x24 }
  - { offsetInCU: 0x1132E, offset: 0x1132E, size: 0x8, addend: 0x0, symName: __ZNSt3__112basic_stringIcNS_11char_traitsIcEENS_9allocatorIcEEE16__begin_lifetimeB8ue170006EPcm, symObjAddr: 0x54D4, symBinAddr: 0x1000072E4, symSize: 0x14 }
  - { offsetInCU: 0x11361, offset: 0x11361, size: 0x8, addend: 0x0, symName: __ZNSt3__112basic_stringIcNS_11char_traitsIcEENS_9allocatorIcEEE18__set_long_pointerB8ue170006EPc, symObjAddr: 0x54E8, symBinAddr: 0x1000072F8, symSize: 0x38 }
  - { offsetInCU: 0x11395, offset: 0x11395, size: 0x8, addend: 0x0, symName: __ZNSt3__112basic_stringIcNS_11char_traitsIcEENS_9allocatorIcEEE14__set_long_capB8ue170006Em, symObjAddr: 0x5520, symBinAddr: 0x100007330, symSize: 0x70 }
  - { offsetInCU: 0x113C9, offset: 0x113C9, size: 0x8, addend: 0x0, symName: __ZNSt3__112basic_stringIcNS_11char_traitsIcEENS_9allocatorIcEEE15__set_long_sizeB8ue170006Em, symObjAddr: 0x5590, symBinAddr: 0x1000073A0, symSize: 0x38 }
  - { offsetInCU: 0x113FD, offset: 0x113FD, size: 0x8, addend: 0x0, symName: __ZNSt3__122__compressed_pair_elemINS_12basic_stringIcNS_11char_traitsIcEENS_9allocatorIcEEE5__repELi0ELb0EE5__getB8ue170006Ev, symObjAddr: 0x55C8, symBinAddr: 0x1000073D8, symSize: 0x14 }
  - { offsetInCU: 0x11422, offset: 0x11422, size: 0x8, addend: 0x0, symName: __ZNSt3__112basic_stringIcNS_11char_traitsIcEENS_9allocatorIcEEE10__align_itB8ue170006ILm16EEEmm, symObjAddr: 0x55DC, symBinAddr: 0x1000073EC, symSize: 0x1C }
  - { offsetInCU: 0x11450, offset: 0x11450, size: 0x8, addend: 0x0, symName: __ZNSt3__19allocatorIcE8allocateB8ue170006Em, symObjAddr: 0x55F8, symBinAddr: 0x100007408, symSize: 0x84 }
  - { offsetInCU: 0x1148D, offset: 0x1148D, size: 0x8, addend: 0x0, symName: __ZNSt3__116allocator_traitsINS_9allocatorIcEEE8max_sizeB8ue170006IS2_vEEmRKS2_, symObjAddr: 0x567C, symBinAddr: 0x10000748C, symSize: 0x24 }
  - { offsetInCU: 0x114BB, offset: 0x114BB, size: 0x8, addend: 0x0, symName: __ZNKSt3__19allocatorIcE8max_sizeB8ue170006Ev, symObjAddr: 0x56A0, symBinAddr: 0x1000074B0, symSize: 0x14 }
  - { offsetInCU: 0x114E0, offset: 0x114E0, size: 0x8, addend: 0x0, symName: __ZNSt3__117__compressed_pairINS_12basic_stringIcNS_11char_traitsIcEENS_9allocatorIcEEE5__repES5_E6secondB8ue170006Ev, symObjAddr: 0x56B4, symBinAddr: 0x1000074C4, symSize: 0x24 }
  - { offsetInCU: 0x11505, offset: 0x11505, size: 0x8, addend: 0x0, symName: __ZNSt3__122__compressed_pair_elemINS_9allocatorIcEELi1ELb1EE5__getB8ue170006Ev, symObjAddr: 0x56D8, symBinAddr: 0x1000074E8, symSize: 0x14 }
  - { offsetInCU: 0x1152A, offset: 0x1152A, size: 0x8, addend: 0x0, symName: __ZNSt3__112basic_stringIcNS_11char_traitsIcEENS_9allocatorIcEEEC2B8ue170006Ev, symObjAddr: 0x56EC, symBinAddr: 0x1000074FC, symSize: 0x3C }
  - { offsetInCU: 0x11553, offset: 0x11553, size: 0x8, addend: 0x0, symName: __ZNSt3__117__compressed_pairINS_12basic_stringIcNS_11char_traitsIcEENS_9allocatorIcEEE5__repES5_EC1B8ue170006INS_18__default_init_tagESA_EEOT_OT0_, symObjAddr: 0x5728, symBinAddr: 0x100007538, symSize: 0x3C }
  - { offsetInCU: 0x115AA, offset: 0x115AA, size: 0x8, addend: 0x0, symName: __ZNSt3__117__compressed_pairINS_12basic_stringIcNS_11char_traitsIcEENS_9allocatorIcEEE5__repES5_EC2B8ue170006INS_18__default_init_tagESA_EEOT_OT0_, symObjAddr: 0x5764, symBinAddr: 0x100007574, symSize: 0x3C }
  - { offsetInCU: 0x11601, offset: 0x11601, size: 0x8, addend: 0x0, symName: __ZNSt3__122__compressed_pair_elemINS_9allocatorIcEELi1ELb1EEC2B8ue170006ENS_18__default_init_tagE, symObjAddr: 0x57A0, symBinAddr: 0x1000075B0, symSize: 0x2C }
  - { offsetInCU: 0x11634, offset: 0x11634, size: 0x8, addend: 0x0, symName: __ZNSt3__19allocatorIcEC2B8ue170006Ev, symObjAddr: 0x57CC, symBinAddr: 0x1000075DC, symSize: 0x2C }
  - { offsetInCU: 0x1165D, offset: 0x1165D, size: 0x8, addend: 0x0, symName: __ZNSt3__116__non_trivial_ifILb1ENS_9allocatorIcEEEC2B8ue170006Ev, symObjAddr: 0x57F8, symBinAddr: 0x100007608, symSize: 0x14 }
  - { offsetInCU: 0x11686, offset: 0x11686, size: 0x8, addend: 0x0, symName: __ZNSt3__16vectorINS_12basic_stringIcNS_11char_traitsIcEENS_9allocatorIcEEEENS4_IS6_EEEC2B8ue170006Ev, symObjAddr: 0x580C, symBinAddr: 0x10000761C, symSize: 0x44 }
  - { offsetInCU: 0x116AF, offset: 0x116AF, size: 0x8, addend: 0x0, symName: __ZNSt3__117__compressed_pairIPNS_12basic_stringIcNS_11char_traitsIcEENS_9allocatorIcEEEENS4_IS6_EEEC1B8ue170006IDnNS_18__default_init_tagEEEOT_OT0_, symObjAddr: 0x5850, symBinAddr: 0x100007660, symSize: 0x3C }
  - { offsetInCU: 0x11706, offset: 0x11706, size: 0x8, addend: 0x0, symName: __ZNSt3__117__compressed_pairIPNS_12basic_stringIcNS_11char_traitsIcEENS_9allocatorIcEEEENS4_IS6_EEEC2B8ue170006IDnNS_18__default_init_tagEEEOT_OT0_, symObjAddr: 0x588C, symBinAddr: 0x10000769C, symSize: 0x40 }
  - { offsetInCU: 0x1175D, offset: 0x1175D, size: 0x8, addend: 0x0, symName: __ZNSt3__122__compressed_pair_elemINS_9allocatorINS_12basic_stringIcNS_11char_traitsIcEENS1_IcEEEEEELi1ELb1EEC2B8ue170006ENS_18__default_init_tagE, symObjAddr: 0x58CC, symBinAddr: 0x1000076DC, symSize: 0x2C }
  - { offsetInCU: 0x11790, offset: 0x11790, size: 0x8, addend: 0x0, symName: __ZNSt3__19allocatorINS_12basic_stringIcNS_11char_traitsIcEENS0_IcEEEEEC2B8ue170006Ev, symObjAddr: 0x58F8, symBinAddr: 0x100007708, symSize: 0x2C }
  - { offsetInCU: 0x117B9, offset: 0x117B9, size: 0x8, addend: 0x0, symName: __ZNSt3__116__non_trivial_ifILb1ENS_9allocatorINS_12basic_stringIcNS_11char_traitsIcEENS1_IcEEEEEEEC2B8ue170006Ev, symObjAddr: 0x5924, symBinAddr: 0x100007734, symSize: 0x14 }
  - { offsetInCU: 0x117E2, offset: 0x117E2, size: 0x8, addend: 0x0, symName: __ZNSt3__16vectorINS_12basic_stringIcNS_11char_traitsIcEENS_9allocatorIcEEEENS4_IS6_EEED2B8ue170006Ev, symObjAddr: 0x5938, symBinAddr: 0x100007748, symSize: 0x3C }
  - { offsetInCU: 0x11829, offset: 0x11829, size: 0x8, addend: 0x0, symName: __ZNKSt3__113basic_istreamIcNS_11char_traitsIcEEE6sentrycvbB8ue170006Ev, symObjAddr: 0x5974, symBinAddr: 0x100007784, symSize: 0x1C }
  - { offsetInCU: 0x1184E, offset: 0x1184E, size: 0x8, addend: 0x0, symName: __ZNSt3__112basic_stringIcNS_11char_traitsIcEENS_9allocatorIcEEE5clearB8ue170006Ev, symObjAddr: 0x5990, symBinAddr: 0x1000077A0, symSize: 0x78 }
  - { offsetInCU: 0x11874, offset: 0x11874, size: 0x8, addend: 0x0, symName: __ZNKSt3__19basic_iosIcNS_11char_traitsIcEEE5rdbufB8ue170006Ev, symObjAddr: 0x5A08, symBinAddr: 0x100007818, symSize: 0x24 }
  - { offsetInCU: 0x1189A, offset: 0x1189A, size: 0x8, addend: 0x0, symName: __ZNSt3__115basic_streambufIcNS_11char_traitsIcEEE6sbumpcB8ue170006Ev, symObjAddr: 0x5A2C, symBinAddr: 0x10000783C, symSize: 0x78 }
  - { offsetInCU: 0x118BF, offset: 0x118BF, size: 0x8, addend: 0x0, symName: __ZNSt3__111char_traitsIcE11eq_int_typeB8ue170006Eii, symObjAddr: 0x5AA4, symBinAddr: 0x1000078B4, symSize: 0x28 }
  - { offsetInCU: 0x118F2, offset: 0x118F2, size: 0x8, addend: 0x0, symName: __ZNSt3__111char_traitsIcE12to_char_typeB8ue170006Ei, symObjAddr: 0x5ACC, symBinAddr: 0x1000078DC, symSize: 0x18 }
  - { offsetInCU: 0x11915, offset: 0x11915, size: 0x8, addend: 0x0, symName: __ZNSt3__111char_traitsIcE2eqEcc, symObjAddr: 0x5AE4, symBinAddr: 0x1000078F4, symSize: 0x28 }
  - { offsetInCU: 0x11946, offset: 0x11946, size: 0x8, addend: 0x0, symName: __ZNKSt3__112basic_stringIcNS_11char_traitsIcEENS_9allocatorIcEEE4sizeB8ue170006Ev, symObjAddr: 0x5B0C, symBinAddr: 0x10000791C, symSize: 0x54 }
  - { offsetInCU: 0x1196B, offset: 0x1196B, size: 0x8, addend: 0x0, symName: __ZNKSt3__112basic_stringIcNS_11char_traitsIcEENS_9allocatorIcEEE8max_sizeB8ue170006Ev, symObjAddr: 0x5B60, symBinAddr: 0x100007970, symSize: 0xAC }
  - { offsetInCU: 0x119BD, offset: 0x119BD, size: 0x8, addend: 0x0, symName: __ZNSt3__18ios_base18__setstate_nothrowB8ue170006Ej, symObjAddr: 0x5C0C, symBinAddr: 0x100007A1C, symSize: 0x64 }
  - { offsetInCU: 0x119F1, offset: 0x119F1, size: 0x8, addend: 0x0, symName: __ZNKSt3__19basic_iosIcNS_11char_traitsIcEEE10exceptionsB8ue170006Ev, symObjAddr: 0x5C70, symBinAddr: 0x100007A80, symSize: 0x24 }
  - { offsetInCU: 0x11A16, offset: 0x11A16, size: 0x8, addend: 0x0, symName: __ZNSt3__19basic_iosIcNS_11char_traitsIcEEE8setstateB8ue170006Ej, symObjAddr: 0x5C94, symBinAddr: 0x100007AA4, symSize: 0x2C }
  - { offsetInCU: 0x11A4A, offset: 0x11A4A, size: 0x8, addend: 0x0, symName: __ZNKSt3__112basic_stringIcNS_11char_traitsIcEENS_9allocatorIcEEE9__is_longB8ue170006Ev, symObjAddr: 0x5CC0, symBinAddr: 0x100007AD0, symSize: 0x74 }
  - { offsetInCU: 0x11A6F, offset: 0x11A6F, size: 0x8, addend: 0x0, symName: __ZNSt3__111char_traitsIcE6assignB8ue170006ERcRKc, symObjAddr: 0x5D34, symBinAddr: 0x100007B44, symSize: 0x24 }
  - { offsetInCU: 0x11AA0, offset: 0x11AA0, size: 0x8, addend: 0x0, symName: __ZNSt3__112basic_stringIcNS_11char_traitsIcEENS_9allocatorIcEEE18__get_long_pointerB8ue170006Ev, symObjAddr: 0x5D58, symBinAddr: 0x100007B68, symSize: 0x28 }
  - { offsetInCU: 0x11AC5, offset: 0x11AC5, size: 0x8, addend: 0x0, symName: __ZNSt3__112basic_stringIcNS_11char_traitsIcEENS_9allocatorIcEEE19__get_short_pointerB8ue170006Ev, symObjAddr: 0x5D80, symBinAddr: 0x100007B90, symSize: 0x28 }
  - { offsetInCU: 0x11AEA, offset: 0x11AEA, size: 0x8, addend: 0x0, symName: __ZNSt3__112basic_stringIcNS_11char_traitsIcEENS_9allocatorIcEEE16__set_short_sizeB8ue170006Em, symObjAddr: 0x5DA8, symBinAddr: 0x100007BB8, symSize: 0x78 }
  - { offsetInCU: 0x11B1E, offset: 0x11B1E, size: 0x8, addend: 0x0, symName: __ZNKSt3__117__compressed_pairINS_12basic_stringIcNS_11char_traitsIcEENS_9allocatorIcEEE5__repES5_E5firstB8ue170006Ev, symObjAddr: 0x5E20, symBinAddr: 0x100007C30, symSize: 0x24 }
  - { offsetInCU: 0x11B43, offset: 0x11B43, size: 0x8, addend: 0x0, symName: __ZNKSt3__122__compressed_pair_elemINS_12basic_stringIcNS_11char_traitsIcEENS_9allocatorIcEEE5__repELi0ELb0EE5__getB8ue170006Ev, symObjAddr: 0x5E44, symBinAddr: 0x100007C54, symSize: 0x14 }
  - { offsetInCU: 0x11B68, offset: 0x11B68, size: 0x8, addend: 0x0, symName: __ZNSt3__114pointer_traitsIPcE10pointer_toB8ue170006ERc, symObjAddr: 0x5E58, symBinAddr: 0x100007C68, symSize: 0x14 }
  - { offsetInCU: 0x11B8B, offset: 0x11B8B, size: 0x8, addend: 0x0, symName: __ZNKSt3__18ios_base5rdbufB8ue170006Ev, symObjAddr: 0x5E6C, symBinAddr: 0x100007C7C, symSize: 0x18 }
  - { offsetInCU: 0x11BB0, offset: 0x11BB0, size: 0x8, addend: 0x0, symName: __ZNSt3__111char_traitsIcE11to_int_typeB8ue170006Ec, symObjAddr: 0x5E84, symBinAddr: 0x100007C94, symSize: 0x14 }
  - { offsetInCU: 0x11BD4, offset: 0x11BD4, size: 0x8, addend: 0x0, symName: __ZNKSt3__112basic_stringIcNS_11char_traitsIcEENS_9allocatorIcEEE15__get_long_sizeB8ue170006Ev, symObjAddr: 0x5E98, symBinAddr: 0x100007CA8, symSize: 0x28 }
  - { offsetInCU: 0x11BF9, offset: 0x11BF9, size: 0x8, addend: 0x0, symName: __ZNKSt3__112basic_stringIcNS_11char_traitsIcEENS_9allocatorIcEEE16__get_short_sizeB8ue170006Ev, symObjAddr: 0x5EC0, symBinAddr: 0x100007CD0, symSize: 0x34 }
  - { offsetInCU: 0x11C1E, offset: 0x11C1E, size: 0x8, addend: 0x0, symName: __ZNSt3__114numeric_limitsImE3maxB8ue170006Ev, symObjAddr: 0x5EF4, symBinAddr: 0x100007D04, symSize: 0x14 }
  - { offsetInCU: 0x11C32, offset: 0x11C32, size: 0x8, addend: 0x0, symName: __ZNSt3__123__libcpp_numeric_limitsImLb1EE3maxB8ue170006Ev, symObjAddr: 0x5F08, symBinAddr: 0x100007D18, symSize: 0x8 }
  - { offsetInCU: 0x11C46, offset: 0x11C46, size: 0x8, addend: 0x0, symName: __ZNKSt3__18ios_base10exceptionsB8ue170006Ev, symObjAddr: 0x5F10, symBinAddr: 0x100007D20, symSize: 0x18 }
  - { offsetInCU: 0x11C6D, offset: 0x11C6D, size: 0x8, addend: 0x0, symName: __ZNSt3__18ios_base8setstateB8ue170006Ej, symObjAddr: 0x5F28, symBinAddr: 0x100007D38, symSize: 0x34 }
  - { offsetInCU: 0x11CA2, offset: 0x11CA2, size: 0x8, addend: 0x0, symName: __ZNKSt3__19basic_iosIcNS_11char_traitsIcEEE4failB8ue170006Ev, symObjAddr: 0x5F5C, symBinAddr: 0x100007D6C, symSize: 0x28 }
  - { offsetInCU: 0x11CC7, offset: 0x11CC7, size: 0x8, addend: 0x0, symName: __ZNKSt3__18ios_base4failB8ue170006Ev, symObjAddr: 0x5F84, symBinAddr: 0x100007D94, symSize: 0x28 }
  - { offsetInCU: 0x11CEE, offset: 0x11CEE, size: 0x8, addend: 0x0, symName: __ZNSt3__16vectorINS_12basic_stringIcNS_11char_traitsIcEENS_9allocatorIcEEEENS4_IS6_EEE22__construct_one_at_endB8ue170006IJRKS6_EEEvDpOT_, symObjAddr: 0x5FAC, symBinAddr: 0x100007DBC, symSize: 0x98 }
  - { offsetInCU: 0x11D3C, offset: 0x11D3C, size: 0x8, addend: 0x0, symName: __ZNSt3__16vectorINS_12basic_stringIcNS_11char_traitsIcEENS_9allocatorIcEEEENS4_IS6_EEE21__push_back_slow_pathIRKS6_EEvOT_, symObjAddr: 0x6044, symBinAddr: 0x100007E54, symSize: 0xE0 }
  - { offsetInCU: 0x11D98, offset: 0x11D98, size: 0x8, addend: 0x0, symName: __ZNSt3__116allocator_traitsINS_9allocatorINS_12basic_stringIcNS_11char_traitsIcEENS1_IcEEEEEEE9constructB8ue170006IS6_JRKS6_EvEEvRS7_PT_DpOT0_, symObjAddr: 0x6124, symBinAddr: 0x100007F34, symSize: 0x34 }
  - { offsetInCU: 0x11DEF, offset: 0x11DEF, size: 0x8, addend: 0x0, symName: __ZNSt3__19allocatorINS_12basic_stringIcNS_11char_traitsIcEENS0_IcEEEEE9constructB8ue170006IS5_JRKS5_EEEvPT_DpOT0_, symObjAddr: 0x6158, symBinAddr: 0x100007F68, symSize: 0x30 }
  - { offsetInCU: 0x11E44, offset: 0x11E44, size: 0x8, addend: 0x0, symName: __ZNSt3__114__split_bufferINS_12basic_stringIcNS_11char_traitsIcEENS_9allocatorIcEEEERNS4_IS6_EEEC1EmmS8_, symObjAddr: 0x6188, symBinAddr: 0x100007F98, symSize: 0x44 }
  - { offsetInCU: 0x11E99, offset: 0x11E99, size: 0x8, addend: 0x0, symName: __ZNSt3__114__split_bufferINS_12basic_stringIcNS_11char_traitsIcEENS_9allocatorIcEEEERNS4_IS6_EEED1Ev, symObjAddr: 0x62DC, symBinAddr: 0x1000080EC, symSize: 0x2C }
  - { offsetInCU: 0x11EC4, offset: 0x11EC4, size: 0x8, addend: 0x0, symName: __ZNSt3__114__split_bufferINS_12basic_stringIcNS_11char_traitsIcEENS_9allocatorIcEEEERNS4_IS6_EEEC2EmmS8_, symObjAddr: 0x6308, symBinAddr: 0x100008118, symSize: 0xE0 }
  - { offsetInCU: 0x11F37, offset: 0x11F37, size: 0x8, addend: 0x0, symName: __ZNSt3__117__compressed_pairIPNS_12basic_stringIcNS_11char_traitsIcEENS_9allocatorIcEEEERNS4_IS6_EEEC1B8ue170006IDnS9_EEOT_OT0_, symObjAddr: 0x63E8, symBinAddr: 0x1000081F8, symSize: 0x3C }
  - { offsetInCU: 0x11F8E, offset: 0x11F8E, size: 0x8, addend: 0x0, symName: __ZNSt3__114__split_bufferINS_12basic_stringIcNS_11char_traitsIcEENS_9allocatorIcEEEERNS4_IS6_EEE7__allocB8ue170006Ev, symObjAddr: 0x6424, symBinAddr: 0x100008234, symSize: 0x28 }
  - { offsetInCU: 0x11FB3, offset: 0x11FB3, size: 0x8, addend: 0x0, symName: __ZNSt3__114__split_bufferINS_12basic_stringIcNS_11char_traitsIcEENS_9allocatorIcEEEERNS4_IS6_EEE9__end_capB8ue170006Ev, symObjAddr: 0x644C, symBinAddr: 0x10000825C, symSize: 0x28 }
  - { offsetInCU: 0x11FD8, offset: 0x11FD8, size: 0x8, addend: 0x0, symName: __ZNSt3__117__compressed_pairIPNS_12basic_stringIcNS_11char_traitsIcEENS_9allocatorIcEEEERNS4_IS6_EEEC2B8ue170006IDnS9_EEOT_OT0_, symObjAddr: 0x6474, symBinAddr: 0x100008284, symSize: 0x48 }
  - { offsetInCU: 0x1202F, offset: 0x1202F, size: 0x8, addend: 0x0, symName: __ZNSt3__122__compressed_pair_elemIRNS_9allocatorINS_12basic_stringIcNS_11char_traitsIcEENS1_IcEEEEEELi1ELb0EEC2B8ue170006IS8_vEEOT_, symObjAddr: 0x64BC, symBinAddr: 0x1000082CC, symSize: 0x20 }
  - { offsetInCU: 0x12070, offset: 0x12070, size: 0x8, addend: 0x0, symName: __ZNSt3__117__compressed_pairIPNS_12basic_stringIcNS_11char_traitsIcEENS_9allocatorIcEEEERNS4_IS6_EEE6secondB8ue170006Ev, symObjAddr: 0x64DC, symBinAddr: 0x1000082EC, symSize: 0x28 }
  - { offsetInCU: 0x12095, offset: 0x12095, size: 0x8, addend: 0x0, symName: __ZNSt3__122__compressed_pair_elemIRNS_9allocatorINS_12basic_stringIcNS_11char_traitsIcEENS1_IcEEEEEELi1ELb0EE5__getB8ue170006Ev, symObjAddr: 0x6504, symBinAddr: 0x100008314, symSize: 0x18 }
  - { offsetInCU: 0x120BA, offset: 0x120BA, size: 0x8, addend: 0x0, symName: __ZNSt3__117__compressed_pairIPNS_12basic_stringIcNS_11char_traitsIcEENS_9allocatorIcEEEERNS4_IS6_EEE5firstB8ue170006Ev, symObjAddr: 0x651C, symBinAddr: 0x10000832C, symSize: 0x24 }
  - { offsetInCU: 0x120DF, offset: 0x120DF, size: 0x8, addend: 0x0, symName: __ZNSt3__129_AllocatorDestroyRangeReverseINS_9allocatorINS_12basic_stringIcNS_11char_traitsIcEENS1_IcEEEEEENS_16reverse_iteratorIPS6_EEEC1B8ue170006ERS7_RSA_SD_, symObjAddr: 0x66EC, symBinAddr: 0x1000084FC, symSize: 0x44 }
  - { offsetInCU: 0x12135, offset: 0x12135, size: 0x8, addend: 0x0, symName: __ZNSt3__128__exception_guard_exceptionsINS_29_AllocatorDestroyRangeReverseINS_9allocatorINS_12basic_stringIcNS_11char_traitsIcEENS2_IcEEEEEENS_16reverse_iteratorIPS7_EEEEE10__completeB8ue170006Ev, symObjAddr: 0x6730, symBinAddr: 0x100008540, symSize: 0x1C }
  - { offsetInCU: 0x1215A, offset: 0x1215A, size: 0x8, addend: 0x0, symName: __ZNSt3__128__exception_guard_exceptionsINS_29_AllocatorDestroyRangeReverseINS_9allocatorINS_12basic_stringIcNS_11char_traitsIcEENS2_IcEEEEEENS_16reverse_iteratorIPS7_EEEEED1B8ue170006Ev, symObjAddr: 0x674C, symBinAddr: 0x10000855C, symSize: 0x2C }
  - { offsetInCU: 0x12183, offset: 0x12183, size: 0x8, addend: 0x0, symName: __ZNSt3__128__exception_guard_exceptionsINS_29_AllocatorDestroyRangeReverseINS_9allocatorINS_12basic_stringIcNS_11char_traitsIcEENS2_IcEEEEEENS_16reverse_iteratorIPS7_EEEEEC1B8ue170006ESC_, symObjAddr: 0x6778, symBinAddr: 0x100008588, symSize: 0x34 }
  - { offsetInCU: 0x121BB, offset: 0x121BB, size: 0x8, addend: 0x0, symName: __ZNSt3__128__exception_guard_exceptionsINS_29_AllocatorDestroyRangeReverseINS_9allocatorINS_12basic_stringIcNS_11char_traitsIcEENS2_IcEEEEEENS_16reverse_iteratorIPS7_EEEEEC2B8ue170006ESC_, symObjAddr: 0x67AC, symBinAddr: 0x1000085BC, symSize: 0x30 }
  - { offsetInCU: 0x121F3, offset: 0x121F3, size: 0x8, addend: 0x0, symName: __ZNSt3__129_AllocatorDestroyRangeReverseINS_9allocatorINS_12basic_stringIcNS_11char_traitsIcEENS1_IcEEEEEENS_16reverse_iteratorIPS6_EEEC2B8ue170006ERS7_RSA_SD_, symObjAddr: 0x67DC, symBinAddr: 0x1000085EC, symSize: 0x38 }
  - { offsetInCU: 0x12249, offset: 0x12249, size: 0x8, addend: 0x0, symName: __ZNSt3__128__exception_guard_exceptionsINS_29_AllocatorDestroyRangeReverseINS_9allocatorINS_12basic_stringIcNS_11char_traitsIcEENS2_IcEEEEEENS_16reverse_iteratorIPS7_EEEEED2B8ue170006Ev, symObjAddr: 0x6814, symBinAddr: 0x100008624, symSize: 0x48 }
  - { offsetInCU: 0x12272, offset: 0x12272, size: 0x8, addend: 0x0, symName: __ZNKSt3__129_AllocatorDestroyRangeReverseINS_9allocatorINS_12basic_stringIcNS_11char_traitsIcEENS1_IcEEEEEENS_16reverse_iteratorIPS6_EEEclB8ue170006Ev, symObjAddr: 0x685C, symBinAddr: 0x10000866C, symSize: 0xB4 }
  - { offsetInCU: 0x12298, offset: 0x12298, size: 0x8, addend: 0x0, symName: __ZNSt3__116reverse_iteratorINS0_IPNS_12basic_stringIcNS_11char_traitsIcEENS_9allocatorIcEEEEEEEC1B8ue170006ES8_, symObjAddr: 0x6980, symBinAddr: 0x100008790, symSize: 0x3C }
  - { offsetInCU: 0x122CF, offset: 0x122CF, size: 0x8, addend: 0x0, symName: __ZNSt3__116reverse_iteratorINS0_IPNS_12basic_stringIcNS_11char_traitsIcEENS_9allocatorIcEEEEEEEppB8ue170006Ev, symObjAddr: 0x6A40, symBinAddr: 0x100008850, symSize: 0x30 }
  - { offsetInCU: 0x122F4, offset: 0x122F4, size: 0x8, addend: 0x0, symName: __ZNKSt3__116reverse_iteratorINS0_IPNS_12basic_stringIcNS_11char_traitsIcEENS_9allocatorIcEEEEEEE4baseB8ue170006Ev, symObjAddr: 0x6A70, symBinAddr: 0x100008880, symSize: 0x24 }
  - { offsetInCU: 0x1231E, offset: 0x1231E, size: 0x8, addend: 0x0, symName: __ZNSt3__119__to_address_helperINS_16reverse_iteratorINS1_IPNS_12basic_stringIcNS_11char_traitsIcEENS_9allocatorIcEEEEEEEEvE6__callB8ue170006ERKSA_, symObjAddr: 0x6A94, symBinAddr: 0x1000088A4, symSize: 0x4C }
  - { offsetInCU: 0x12341, offset: 0x12341, size: 0x8, addend: 0x0, symName: __ZNKSt3__116reverse_iteratorINS0_IPNS_12basic_stringIcNS_11char_traitsIcEENS_9allocatorIcEEEEEEEptB8ue170006Ev, symObjAddr: 0x6AE0, symBinAddr: 0x1000088F0, symSize: 0x24 }
  - { offsetInCU: 0x12366, offset: 0x12366, size: 0x8, addend: 0x0, symName: __ZNKSt3__116reverse_iteratorINS0_IPNS_12basic_stringIcNS_11char_traitsIcEENS_9allocatorIcEEEEEEEdeB8ue170006Ev, symObjAddr: 0x6B04, symBinAddr: 0x100008914, symSize: 0x34 }
  - { offsetInCU: 0x12399, offset: 0x12399, size: 0x8, addend: 0x0, symName: __ZNSt3__116reverse_iteratorIPNS_12basic_stringIcNS_11char_traitsIcEENS_9allocatorIcEEEEEmmB8ue170006Ev, symObjAddr: 0x6B38, symBinAddr: 0x100008948, symSize: 0x20 }
  - { offsetInCU: 0x123BE, offset: 0x123BE, size: 0x8, addend: 0x0, symName: __ZNSt3__116reverse_iteratorINS0_IPNS_12basic_stringIcNS_11char_traitsIcEENS_9allocatorIcEEEEEEEC2B8ue170006ES8_, symObjAddr: 0x6B58, symBinAddr: 0x100008968, symSize: 0x2C }
  - { offsetInCU: 0x123F5, offset: 0x123F5, size: 0x8, addend: 0x0, symName: __ZNSt3__114__split_bufferINS_12basic_stringIcNS_11char_traitsIcEENS_9allocatorIcEEEERNS4_IS6_EEED2Ev, symObjAddr: 0x6B84, symBinAddr: 0x100008994, symSize: 0x80 }
  - { offsetInCU: 0x12420, offset: 0x12420, size: 0x8, addend: 0x0, symName: __ZNSt3__114__split_bufferINS_12basic_stringIcNS_11char_traitsIcEENS_9allocatorIcEEEERNS4_IS6_EEE5clearB8ue170006Ev, symObjAddr: 0x6C04, symBinAddr: 0x100008A14, symSize: 0x28 }
  - { offsetInCU: 0x12445, offset: 0x12445, size: 0x8, addend: 0x0, symName: __ZNKSt3__114__split_bufferINS_12basic_stringIcNS_11char_traitsIcEENS_9allocatorIcEEEERNS4_IS6_EEE8capacityB8ue170006Ev, symObjAddr: 0x6C2C, symBinAddr: 0x100008A3C, symSize: 0x40 }
  - { offsetInCU: 0x1246A, offset: 0x1246A, size: 0x8, addend: 0x0, symName: __ZNSt3__114__split_bufferINS_12basic_stringIcNS_11char_traitsIcEENS_9allocatorIcEEEERNS4_IS6_EEE17__destruct_at_endB8ue170006EPS6_, symObjAddr: 0x6C6C, symBinAddr: 0x100008A7C, symSize: 0x2C }
  - { offsetInCU: 0x1249D, offset: 0x1249D, size: 0x8, addend: 0x0, symName: __ZNSt3__114__split_bufferINS_12basic_stringIcNS_11char_traitsIcEENS_9allocatorIcEEEERNS4_IS6_EEE17__destruct_at_endB8ue170006EPS6_NS_17integral_constantIbLb0EEE, symObjAddr: 0x6C98, symBinAddr: 0x100008AA8, symSize: 0x94 }
  - { offsetInCU: 0x124DB, offset: 0x124DB, size: 0x8, addend: 0x0, symName: __ZNKSt3__114__split_bufferINS_12basic_stringIcNS_11char_traitsIcEENS_9allocatorIcEEEERNS4_IS6_EEE9__end_capB8ue170006Ev, symObjAddr: 0x6D2C, symBinAddr: 0x100008B3C, symSize: 0x28 }
  - { offsetInCU: 0x12500, offset: 0x12500, size: 0x8, addend: 0x0, symName: __ZNKSt3__117__compressed_pairIPNS_12basic_stringIcNS_11char_traitsIcEENS_9allocatorIcEEEERNS4_IS6_EEE5firstB8ue170006Ev, symObjAddr: 0x6D54, symBinAddr: 0x100008B64, symSize: 0x24 }
  - { offsetInCU: 0x12525, offset: 0x12525, size: 0x8, addend: 0x0, symName: __ZNSt3__113basic_filebufIcNS_11char_traitsIcEEE4openERKNS_12basic_stringIcS2_NS_9allocatorIcEEEEj, symObjAddr: 0x6D78, symBinAddr: 0x100008B88, symSize: 0x44 }
  - { offsetInCU: 0x12567, offset: 0x12567, size: 0x8, addend: 0x0, symName: __ZNKSt3__112basic_stringIcNS_11char_traitsIcEENS_9allocatorIcEEE5c_strB8ue170006Ev, symObjAddr: 0x6DBC, symBinAddr: 0x100008BCC, symSize: 0x24 }
  - { offsetInCU: 0x1258C, offset: 0x1258C, size: 0x8, addend: 0x0, symName: __ZNKSt3__112basic_stringIcNS_11char_traitsIcEENS_9allocatorIcEEE4dataB8ue170006Ev, symObjAddr: 0x6DE0, symBinAddr: 0x100008BF0, symSize: 0x28 }
  - { offsetInCU: 0x125B1, offset: 0x125B1, size: 0x8, addend: 0x0, symName: __ZNKSt3__112basic_stringIcNS_11char_traitsIcEENS_9allocatorIcEEE13__get_pointerB8ue170006Ev, symObjAddr: 0x6E1C, symBinAddr: 0x100008C2C, symSize: 0x54 }
  - { offsetInCU: 0x125D6, offset: 0x125D6, size: 0x8, addend: 0x0, symName: __ZNKSt3__112basic_stringIcNS_11char_traitsIcEENS_9allocatorIcEEE18__get_long_pointerB8ue170006Ev, symObjAddr: 0x6E70, symBinAddr: 0x100008C80, symSize: 0x28 }
  - { offsetInCU: 0x125FB, offset: 0x125FB, size: 0x8, addend: 0x0, symName: __ZNKSt3__112basic_stringIcNS_11char_traitsIcEENS_9allocatorIcEEE19__get_short_pointerB8ue170006Ev, symObjAddr: 0x6E98, symBinAddr: 0x100008CA8, symSize: 0x28 }
  - { offsetInCU: 0x12620, offset: 0x12620, size: 0x8, addend: 0x0, symName: __ZNSt3__114pointer_traitsIPKcE10pointer_toB8ue170006ERS1_, symObjAddr: 0x6EC0, symBinAddr: 0x100008CD0, symSize: 0x14 }
  - { offsetInCU: 0x12643, offset: 0x12643, size: 0x8, addend: 0x0, symName: __ZNSt3__16vectorI6RecordNS_9allocatorIS1_EEEC2B8ue170006Ev, symObjAddr: 0x6ED4, symBinAddr: 0x100008CE4, symSize: 0x44 }
  - { offsetInCU: 0x1266C, offset: 0x1266C, size: 0x8, addend: 0x0, symName: __ZNSt3__117__compressed_pairIP6RecordNS_9allocatorIS1_EEEC1B8ue170006IDnNS_18__default_init_tagEEEOT_OT0_, symObjAddr: 0x6F18, symBinAddr: 0x100008D28, symSize: 0x3C }
  - { offsetInCU: 0x126C3, offset: 0x126C3, size: 0x8, addend: 0x0, symName: __ZNSt3__117__compressed_pairIP6RecordNS_9allocatorIS1_EEEC2B8ue170006IDnNS_18__default_init_tagEEEOT_OT0_, symObjAddr: 0x6F54, symBinAddr: 0x100008D64, symSize: 0x40 }
  - { offsetInCU: 0x1271A, offset: 0x1271A, size: 0x8, addend: 0x0, symName: __ZNSt3__122__compressed_pair_elemIP6RecordLi0ELb0EEC2B8ue170006IDnvEEOT_, symObjAddr: 0x6F94, symBinAddr: 0x100008DA4, symSize: 0x1C }
  - { offsetInCU: 0x1275B, offset: 0x1275B, size: 0x8, addend: 0x0, symName: __ZNSt3__122__compressed_pair_elemINS_9allocatorI6RecordEELi1ELb1EEC2B8ue170006ENS_18__default_init_tagE, symObjAddr: 0x6FB0, symBinAddr: 0x100008DC0, symSize: 0x2C }
  - { offsetInCU: 0x1278E, offset: 0x1278E, size: 0x8, addend: 0x0, symName: __ZNSt3__19allocatorI6RecordEC2B8ue170006Ev, symObjAddr: 0x6FDC, symBinAddr: 0x100008DEC, symSize: 0x2C }
  - { offsetInCU: 0x127B7, offset: 0x127B7, size: 0x8, addend: 0x0, symName: __ZNSt3__116__non_trivial_ifILb1ENS_9allocatorI6RecordEEEC2B8ue170006Ev, symObjAddr: 0x7008, symBinAddr: 0x100008E18, symSize: 0x14 }
  - { offsetInCU: 0x127E0, offset: 0x127E0, size: 0x8, addend: 0x0, symName: __ZNSt3__16vectorI6RecordNS_9allocatorIS1_EEED2B8ue170006Ev, symObjAddr: 0x701C, symBinAddr: 0x100008E2C, symSize: 0x3C }
  - { offsetInCU: 0x12809, offset: 0x12809, size: 0x8, addend: 0x0, symName: __ZNSt3__16vectorI6RecordNS_9allocatorIS1_EEE16__destroy_vectorC1B8ue170006ERS4_, symObjAddr: 0x7058, symBinAddr: 0x100008E68, symSize: 0x34 }
  - { offsetInCU: 0x12841, offset: 0x12841, size: 0x8, addend: 0x0, symName: __ZNSt3__16vectorI6RecordNS_9allocatorIS1_EEE16__destroy_vectorclB8ue170006Ev, symObjAddr: 0x708C, symBinAddr: 0x100008E9C, symSize: 0x90 }
  - { offsetInCU: 0x12866, offset: 0x12866, size: 0x8, addend: 0x0, symName: __ZNSt3__16vectorI6RecordNS_9allocatorIS1_EEE16__destroy_vectorC2B8ue170006ERS4_, symObjAddr: 0x711C, symBinAddr: 0x100008F2C, symSize: 0x20 }
  - { offsetInCU: 0x1289E, offset: 0x1289E, size: 0x8, addend: 0x0, symName: __ZNSt3__16vectorI6RecordNS_9allocatorIS1_EEE7__clearB8ue170006Ev, symObjAddr: 0x713C, symBinAddr: 0x100008F4C, symSize: 0x28 }
  - { offsetInCU: 0x128C3, offset: 0x128C3, size: 0x8, addend: 0x0, symName: __ZNKSt3__16vectorI6RecordNS_9allocatorIS1_EEE17__annotate_deleteB8ue170006Ev, symObjAddr: 0x7164, symBinAddr: 0x100008F74, symSize: 0xD4 }
  - { offsetInCU: 0x128E8, offset: 0x128E8, size: 0x8, addend: 0x0, symName: __ZNSt3__116allocator_traitsINS_9allocatorI6RecordEEE10deallocateB8ue170006ERS3_PS2_m, symObjAddr: 0x7238, symBinAddr: 0x100009048, symSize: 0x34 }
  - { offsetInCU: 0x1292A, offset: 0x1292A, size: 0x8, addend: 0x0, symName: __ZNSt3__19allocatorI6RecordE10deallocateB8ue170006EPS1_m, symObjAddr: 0x726C, symBinAddr: 0x10000907C, symSize: 0x74 }
  - { offsetInCU: 0x1296B, offset: 0x1296B, size: 0x8, addend: 0x0, symName: __ZNKSt3__19basic_iosIcNS_11char_traitsIcEEE5widenB8ue170006Ec, symObjAddr: 0x72E0, symBinAddr: 0x1000090F0, symSize: 0x8C }
  - { offsetInCU: 0x129D7, offset: 0x129D7, size: 0x8, addend: 0x0, symName: __ZNKSt3__15ctypeIcE5widenB8ue170006Ec, symObjAddr: 0x7398, symBinAddr: 0x1000091A8, symSize: 0x38 }
  - { offsetInCU: 0x12A0B, offset: 0x12A0B, size: 0x8, addend: 0x0, symName: __ZNSt3__16vectorINS_12basic_stringIcNS_11char_traitsIcEENS_9allocatorIcEEEENS4_IS6_EEE13__move_assignERS8_NS_17integral_constantIbLb1EEE, symObjAddr: 0x73D0, symBinAddr: 0x1000091E0, symSize: 0x94 }
  - { offsetInCU: 0x12A4C, offset: 0x12A4C, size: 0x8, addend: 0x0, symName: __ZNSt3__16vectorINS_12basic_stringIcNS_11char_traitsIcEENS_9allocatorIcEEEENS4_IS6_EEE19__move_assign_allocB8ue170006ERS8_, symObjAddr: 0x7464, symBinAddr: 0x100009274, symSize: 0x2C }
  - { offsetInCU: 0x12A80, offset: 0x12A80, size: 0x8, addend: 0x0, symName: __ZNSt3__16vectorINS_12basic_stringIcNS_11char_traitsIcEENS_9allocatorIcEEEENS4_IS6_EEE19__move_assign_allocB8ue170006ERS8_NS_17integral_constantIbLb1EEE, symObjAddr: 0x7490, symBinAddr: 0x1000092A0, symSize: 0x38 }
  - { offsetInCU: 0x12AC0, offset: 0x12AC0, size: 0x8, addend: 0x0, symName: __ZNSt3__16vectorI6RecordNS_9allocatorIS1_EEE9__end_capB8ue170006Ev, symObjAddr: 0x74C8, symBinAddr: 0x1000092D8, symSize: 0x28 }
  - { offsetInCU: 0x12AE5, offset: 0x12AE5, size: 0x8, addend: 0x0, symName: __ZNSt3__16vectorI6RecordNS_9allocatorIS1_EEE22__construct_one_at_endB8ue170006IJRKS1_EEEvDpOT_, symObjAddr: 0x74F0, symBinAddr: 0x100009300, symSize: 0x98 }
  - { offsetInCU: 0x12B33, offset: 0x12B33, size: 0x8, addend: 0x0, symName: __ZNSt3__16vectorI6RecordNS_9allocatorIS1_EEE21__push_back_slow_pathIRKS1_EEvOT_, symObjAddr: 0x7588, symBinAddr: 0x100009398, symSize: 0xE0 }
  - { offsetInCU: 0x12B8F, offset: 0x12B8F, size: 0x8, addend: 0x0, symName: __ZNSt3__117__compressed_pairIP6RecordNS_9allocatorIS1_EEE5firstB8ue170006Ev, symObjAddr: 0x7668, symBinAddr: 0x100009478, symSize: 0x24 }
  - { offsetInCU: 0x12BB4, offset: 0x12BB4, size: 0x8, addend: 0x0, symName: __ZNSt3__122__compressed_pair_elemIP6RecordLi0ELb0EE5__getB8ue170006Ev, symObjAddr: 0x768C, symBinAddr: 0x10000949C, symSize: 0x14 }
  - { offsetInCU: 0x12BF2, offset: 0x12BF2, size: 0x8, addend: 0x0, symName: __ZNSt3__16vectorI6RecordNS_9allocatorIS1_EEE21_ConstructTransactionC1B8ue170006ERS4_m, symObjAddr: 0x76A0, symBinAddr: 0x1000094B0, symSize: 0x3C }
  - { offsetInCU: 0x12C39, offset: 0x12C39, size: 0x8, addend: 0x0, symName: __ZNSt3__116allocator_traitsINS_9allocatorI6RecordEEE9constructB8ue170006IS2_JRKS2_EvEEvRS3_PT_DpOT0_, symObjAddr: 0x76DC, symBinAddr: 0x1000094EC, symSize: 0x34 }
  - { offsetInCU: 0x12C90, offset: 0x12C90, size: 0x8, addend: 0x0, symName: __ZNSt3__16vectorI6RecordNS_9allocatorIS1_EEE21_ConstructTransactionD1B8ue170006Ev, symObjAddr: 0x7710, symBinAddr: 0x100009520, symSize: 0x2C }
  - { offsetInCU: 0x12CB9, offset: 0x12CB9, size: 0x8, addend: 0x0, symName: __ZNSt3__16vectorI6RecordNS_9allocatorIS1_EEE21_ConstructTransactionC2B8ue170006ERS4_m, symObjAddr: 0x773C, symBinAddr: 0x10000954C, symSize: 0x4C }
  - { offsetInCU: 0x12D00, offset: 0x12D00, size: 0x8, addend: 0x0, symName: __ZNSt3__19allocatorI6RecordE9constructB8ue170006IS1_JRKS1_EEEvPT_DpOT0_, symObjAddr: 0x7788, symBinAddr: 0x100009598, symSize: 0x30 }
  - { offsetInCU: 0x12D55, offset: 0x12D55, size: 0x8, addend: 0x0, symName: __ZNSt3__16vectorI6RecordNS_9allocatorIS1_EEE21_ConstructTransactionD2B8ue170006Ev, symObjAddr: 0x77B8, symBinAddr: 0x1000095C8, symSize: 0x20 }
  - { offsetInCU: 0x12D7E, offset: 0x12D7E, size: 0x8, addend: 0x0, symName: __ZNKSt3__16vectorI6RecordNS_9allocatorIS1_EEE11__recommendB8ue170006Em, symObjAddr: 0x77D8, symBinAddr: 0x1000095E8, symSize: 0xB4 }
  - { offsetInCU: 0x12DD1, offset: 0x12DD1, size: 0x8, addend: 0x0, symName: __ZNSt3__114__split_bufferI6RecordRNS_9allocatorIS1_EEEC1EmmS4_, symObjAddr: 0x788C, symBinAddr: 0x10000969C, symSize: 0x44 }
  - { offsetInCU: 0x12E26, offset: 0x12E26, size: 0x8, addend: 0x0, symName: __ZNSt3__114__split_bufferI6RecordRNS_9allocatorIS1_EEED1Ev, symObjAddr: 0x79E0, symBinAddr: 0x1000097F0, symSize: 0x2C }
  - { offsetInCU: 0x12E51, offset: 0x12E51, size: 0x8, addend: 0x0, symName: __ZNKSt3__16vectorI6RecordNS_9allocatorIS1_EEE8max_sizeEv, symObjAddr: 0x7A0C, symBinAddr: 0x10000981C, symSize: 0x74 }
  - { offsetInCU: 0x12E77, offset: 0x12E77, size: 0x8, addend: 0x0, symName: __ZNKSt3__16vectorI6RecordNS_9allocatorIS1_EEE20__throw_length_errorB8ue170006Ev, symObjAddr: 0x7A80, symBinAddr: 0x100009890, symSize: 0x1C }
  - { offsetInCU: 0x12EA6, offset: 0x12EA6, size: 0x8, addend: 0x0, symName: __ZNSt3__116allocator_traitsINS_9allocatorI6RecordEEE8max_sizeB8ue170006IS3_vEEmRKS3_, symObjAddr: 0x7A9C, symBinAddr: 0x1000098AC, symSize: 0x24 }
  - { offsetInCU: 0x12ED4, offset: 0x12ED4, size: 0x8, addend: 0x0, symName: __ZNKSt3__16vectorI6RecordNS_9allocatorIS1_EEE7__allocB8ue170006Ev, symObjAddr: 0x7AC0, symBinAddr: 0x1000098D0, symSize: 0x28 }
  - { offsetInCU: 0x12EF9, offset: 0x12EF9, size: 0x8, addend: 0x0, symName: __ZNKSt3__19allocatorI6RecordE8max_sizeB8ue170006Ev, symObjAddr: 0x7AE8, symBinAddr: 0x1000098F8, symSize: 0x18 }
  - { offsetInCU: 0x12F1E, offset: 0x12F1E, size: 0x8, addend: 0x0, symName: __ZNKSt3__117__compressed_pairIP6RecordNS_9allocatorIS1_EEE6secondB8ue170006Ev, symObjAddr: 0x7B00, symBinAddr: 0x100009910, symSize: 0x24 }
  - { offsetInCU: 0x12F43, offset: 0x12F43, size: 0x8, addend: 0x0, symName: __ZNKSt3__122__compressed_pair_elemINS_9allocatorI6RecordEELi1ELb1EE5__getB8ue170006Ev, symObjAddr: 0x7B24, symBinAddr: 0x100009934, symSize: 0x14 }
  - { offsetInCU: 0x12F68, offset: 0x12F68, size: 0x8, addend: 0x0, symName: __ZNSt3__114__split_bufferI6RecordRNS_9allocatorIS1_EEEC2EmmS4_, symObjAddr: 0x7B38, symBinAddr: 0x100009948, symSize: 0xE0 }
  - { offsetInCU: 0x12FDB, offset: 0x12FDB, size: 0x8, addend: 0x0, symName: __ZNSt3__117__compressed_pairIP6RecordRNS_9allocatorIS1_EEEC1B8ue170006IDnS5_EEOT_OT0_, symObjAddr: 0x7C18, symBinAddr: 0x100009A28, symSize: 0x3C }
  - { offsetInCU: 0x13032, offset: 0x13032, size: 0x8, addend: 0x0, symName: __ZNSt3__114__split_bufferI6RecordRNS_9allocatorIS1_EEE7__allocB8ue170006Ev, symObjAddr: 0x7C94, symBinAddr: 0x100009AA4, symSize: 0x28 }
  - { offsetInCU: 0x13057, offset: 0x13057, size: 0x8, addend: 0x0, symName: __ZNSt3__114__split_bufferI6RecordRNS_9allocatorIS1_EEE9__end_capB8ue170006Ev, symObjAddr: 0x7CBC, symBinAddr: 0x100009ACC, symSize: 0x28 }
  - { offsetInCU: 0x1307C, offset: 0x1307C, size: 0x8, addend: 0x0, symName: __ZNSt3__117__compressed_pairIP6RecordRNS_9allocatorIS1_EEEC2B8ue170006IDnS5_EEOT_OT0_, symObjAddr: 0x7CE4, symBinAddr: 0x100009AF4, symSize: 0x48 }
  - { offsetInCU: 0x130D3, offset: 0x130D3, size: 0x8, addend: 0x0, symName: __ZNSt3__122__compressed_pair_elemIRNS_9allocatorI6RecordEELi1ELb0EEC2B8ue170006IS4_vEEOT_, symObjAddr: 0x7D2C, symBinAddr: 0x100009B3C, symSize: 0x20 }
  - { offsetInCU: 0x13114, offset: 0x13114, size: 0x8, addend: 0x0, symName: __ZNSt3__19allocatorI6RecordE8allocateB8ue170006Em, symObjAddr: 0x7D4C, symBinAddr: 0x100009B5C, symSize: 0x8C }
  - { offsetInCU: 0x13147, offset: 0x13147, size: 0x8, addend: 0x0, symName: __ZNSt3__117__compressed_pairIP6RecordRNS_9allocatorIS1_EEE6secondB8ue170006Ev, symObjAddr: 0x7DD8, symBinAddr: 0x100009BE8, symSize: 0x28 }
  - { offsetInCU: 0x1316C, offset: 0x1316C, size: 0x8, addend: 0x0, symName: __ZNSt3__122__compressed_pair_elemIRNS_9allocatorI6RecordEELi1ELb0EE5__getB8ue170006Ev, symObjAddr: 0x7E00, symBinAddr: 0x100009C10, symSize: 0x18 }
  - { offsetInCU: 0x13191, offset: 0x13191, size: 0x8, addend: 0x0, symName: __ZNSt3__117__compressed_pairIP6RecordRNS_9allocatorIS1_EEE5firstB8ue170006Ev, symObjAddr: 0x7E18, symBinAddr: 0x100009C28, symSize: 0x24 }
  - { offsetInCU: 0x131B6, offset: 0x131B6, size: 0x8, addend: 0x0, symName: __ZNSt3__116reverse_iteratorIP6RecordEC1B8ue170006ES2_, symObjAddr: 0x7F70, symBinAddr: 0x100009D80, symSize: 0x34 }
  - { offsetInCU: 0x131ED, offset: 0x131ED, size: 0x8, addend: 0x0, symName: __ZNKSt3__116reverse_iteratorIP6RecordE4baseB8ue170006Ev, symObjAddr: 0x7FA4, symBinAddr: 0x100009DB4, symSize: 0x18 }
  - { offsetInCU: 0x13212, offset: 0x13212, size: 0x8, addend: 0x0, symName: __ZNKSt3__16vectorI6RecordNS_9allocatorIS1_EEE14__annotate_newB8ue170006Em, symObjAddr: 0x7FF8, symBinAddr: 0x100009E08, symSize: 0xC8 }
  - { offsetInCU: 0x13246, offset: 0x13246, size: 0x8, addend: 0x0, symName: __ZNSt3__129_AllocatorDestroyRangeReverseINS_9allocatorI6RecordEENS_16reverse_iteratorIPS2_EEEC1B8ue170006ERS3_RS6_S9_, symObjAddr: 0x810C, symBinAddr: 0x100009F1C, symSize: 0x44 }
  - { offsetInCU: 0x1329C, offset: 0x1329C, size: 0x8, addend: 0x0, symName: __ZNKSt3__116reverse_iteratorIP6RecordEdeB8ue170006Ev, symObjAddr: 0x81BC, symBinAddr: 0x100009FCC, symSize: 0x28 }
  - { offsetInCU: 0x132CF, offset: 0x132CF, size: 0x8, addend: 0x0, symName: __ZNSt3__116reverse_iteratorIP6RecordEppB8ue170006Ev, symObjAddr: 0x81E4, symBinAddr: 0x100009FF4, symSize: 0x20 }
  - { offsetInCU: 0x132F4, offset: 0x132F4, size: 0x8, addend: 0x0, symName: __ZNSt3__128__exception_guard_exceptionsINS_29_AllocatorDestroyRangeReverseINS_9allocatorI6RecordEENS_16reverse_iteratorIPS3_EEEEE10__completeB8ue170006Ev, symObjAddr: 0x8204, symBinAddr: 0x10000A014, symSize: 0x1C }
  - { offsetInCU: 0x13319, offset: 0x13319, size: 0x8, addend: 0x0, symName: __ZNSt3__128__exception_guard_exceptionsINS_29_AllocatorDestroyRangeReverseINS_9allocatorI6RecordEENS_16reverse_iteratorIPS3_EEEEED1B8ue170006Ev, symObjAddr: 0x8220, symBinAddr: 0x10000A030, symSize: 0x2C }
  - { offsetInCU: 0x13342, offset: 0x13342, size: 0x8, addend: 0x0, symName: __ZNSt3__128__exception_guard_exceptionsINS_29_AllocatorDestroyRangeReverseINS_9allocatorI6RecordEENS_16reverse_iteratorIPS3_EEEEEC1B8ue170006ES8_, symObjAddr: 0x824C, symBinAddr: 0x10000A05C, symSize: 0x34 }
  - { offsetInCU: 0x1337A, offset: 0x1337A, size: 0x8, addend: 0x0, symName: __ZNSt3__128__exception_guard_exceptionsINS_29_AllocatorDestroyRangeReverseINS_9allocatorI6RecordEENS_16reverse_iteratorIPS3_EEEEEC2B8ue170006ES8_, symObjAddr: 0x8280, symBinAddr: 0x10000A090, symSize: 0x30 }
  - { offsetInCU: 0x133B2, offset: 0x133B2, size: 0x8, addend: 0x0, symName: __ZNSt3__129_AllocatorDestroyRangeReverseINS_9allocatorI6RecordEENS_16reverse_iteratorIPS2_EEEC2B8ue170006ERS3_RS6_S9_, symObjAddr: 0x82B0, symBinAddr: 0x10000A0C0, symSize: 0x38 }
  - { offsetInCU: 0x1340D, offset: 0x1340D, size: 0x8, addend: 0x0, symName: __ZNSt3__119__to_address_helperINS_16reverse_iteratorIP6RecordEEvE6__callB8ue170006ERKS4_, symObjAddr: 0x82E8, symBinAddr: 0x10000A0F8, symSize: 0x4C }
  - { offsetInCU: 0x13430, offset: 0x13430, size: 0x8, addend: 0x0, symName: __ZNKSt3__116reverse_iteratorIP6RecordEptB8ue170006Ev, symObjAddr: 0x8334, symBinAddr: 0x10000A144, symSize: 0x24 }
  - { offsetInCU: 0x13455, offset: 0x13455, size: 0x8, addend: 0x0, symName: __ZNSt3__128__exception_guard_exceptionsINS_29_AllocatorDestroyRangeReverseINS_9allocatorI6RecordEENS_16reverse_iteratorIPS3_EEEEED2B8ue170006Ev, symObjAddr: 0x8358, symBinAddr: 0x10000A168, symSize: 0x48 }
  - { offsetInCU: 0x1347E, offset: 0x1347E, size: 0x8, addend: 0x0, symName: __ZNKSt3__129_AllocatorDestroyRangeReverseINS_9allocatorI6RecordEENS_16reverse_iteratorIPS2_EEEclB8ue170006Ev, symObjAddr: 0x83A0, symBinAddr: 0x10000A1B0, symSize: 0xB4 }
  - { offsetInCU: 0x134A4, offset: 0x134A4, size: 0x8, addend: 0x0, symName: __ZNSt3__116reverse_iteratorINS0_IP6RecordEEEC1B8ue170006ES3_, symObjAddr: 0x84C4, symBinAddr: 0x10000A2D4, symSize: 0x3C }
  - { offsetInCU: 0x134DB, offset: 0x134DB, size: 0x8, addend: 0x0, symName: __ZNSt3__116reverse_iteratorINS0_IP6RecordEEEppB8ue170006Ev, symObjAddr: 0x8584, symBinAddr: 0x10000A394, symSize: 0x30 }
  - { offsetInCU: 0x13500, offset: 0x13500, size: 0x8, addend: 0x0, symName: __ZNKSt3__116reverse_iteratorINS0_IP6RecordEEE4baseB8ue170006Ev, symObjAddr: 0x85B4, symBinAddr: 0x10000A3C4, symSize: 0x24 }
  - { offsetInCU: 0x1352A, offset: 0x1352A, size: 0x8, addend: 0x0, symName: __ZNSt3__119__to_address_helperINS_16reverse_iteratorINS1_IP6RecordEEEEvE6__callB8ue170006ERKS5_, symObjAddr: 0x85D8, symBinAddr: 0x10000A3E8, symSize: 0x4C }
  - { offsetInCU: 0x1354D, offset: 0x1354D, size: 0x8, addend: 0x0, symName: __ZNKSt3__116reverse_iteratorINS0_IP6RecordEEEptB8ue170006Ev, symObjAddr: 0x8624, symBinAddr: 0x10000A434, symSize: 0x24 }
  - { offsetInCU: 0x13572, offset: 0x13572, size: 0x8, addend: 0x0, symName: __ZNKSt3__116reverse_iteratorINS0_IP6RecordEEEdeB8ue170006Ev, symObjAddr: 0x8648, symBinAddr: 0x10000A458, symSize: 0x34 }
  - { offsetInCU: 0x135A5, offset: 0x135A5, size: 0x8, addend: 0x0, symName: __ZNSt3__116reverse_iteratorIP6RecordEmmB8ue170006Ev, symObjAddr: 0x867C, symBinAddr: 0x10000A48C, symSize: 0x20 }
  - { offsetInCU: 0x135CA, offset: 0x135CA, size: 0x8, addend: 0x0, symName: __ZNSt3__116reverse_iteratorINS0_IP6RecordEEEC2B8ue170006ES3_, symObjAddr: 0x869C, symBinAddr: 0x10000A4AC, symSize: 0x2C }
  - { offsetInCU: 0x13601, offset: 0x13601, size: 0x8, addend: 0x0, symName: __ZNSt3__116reverse_iteratorIP6RecordEC2B8ue170006ES2_, symObjAddr: 0x86C8, symBinAddr: 0x10000A4D8, symSize: 0x28 }
  - { offsetInCU: 0x13638, offset: 0x13638, size: 0x8, addend: 0x0, symName: __ZNSt3__114__split_bufferI6RecordRNS_9allocatorIS1_EEED2Ev, symObjAddr: 0x86F0, symBinAddr: 0x10000A500, symSize: 0x80 }
  - { offsetInCU: 0x13663, offset: 0x13663, size: 0x8, addend: 0x0, symName: __ZNSt3__114__split_bufferI6RecordRNS_9allocatorIS1_EEE5clearB8ue170006Ev, symObjAddr: 0x8770, symBinAddr: 0x10000A580, symSize: 0x28 }
  - { offsetInCU: 0x13688, offset: 0x13688, size: 0x8, addend: 0x0, symName: __ZNKSt3__114__split_bufferI6RecordRNS_9allocatorIS1_EEE8capacityB8ue170006Ev, symObjAddr: 0x8798, symBinAddr: 0x10000A5A8, symSize: 0x40 }
  - { offsetInCU: 0x136AD, offset: 0x136AD, size: 0x8, addend: 0x0, symName: __ZNSt3__114__split_bufferI6RecordRNS_9allocatorIS1_EEE17__destruct_at_endB8ue170006EPS1_, symObjAddr: 0x87D8, symBinAddr: 0x10000A5E8, symSize: 0x2C }
  - { offsetInCU: 0x136E0, offset: 0x136E0, size: 0x8, addend: 0x0, symName: __ZNSt3__114__split_bufferI6RecordRNS_9allocatorIS1_EEE17__destruct_at_endB8ue170006EPS1_NS_17integral_constantIbLb0EEE, symObjAddr: 0x8804, symBinAddr: 0x10000A614, symSize: 0x94 }
  - { offsetInCU: 0x1371E, offset: 0x1371E, size: 0x8, addend: 0x0, symName: __ZNKSt3__114__split_bufferI6RecordRNS_9allocatorIS1_EEE9__end_capB8ue170006Ev, symObjAddr: 0x8898, symBinAddr: 0x10000A6A8, symSize: 0x28 }
  - { offsetInCU: 0x13743, offset: 0x13743, size: 0x8, addend: 0x0, symName: __ZNKSt3__117__compressed_pairIP6RecordRNS_9allocatorIS1_EEE5firstB8ue170006Ev, symObjAddr: 0x88C0, symBinAddr: 0x10000A6D0, symSize: 0x24 }
  - { offsetInCU: 0x13768, offset: 0x13768, size: 0x8, addend: 0x0, symName: __ZNSt3__112basic_stringIcNS_11char_traitsIcEENS_9allocatorIcEEE6appendB8ue170006ERKS5_, symObjAddr: 0x88E4, symBinAddr: 0x10000A6F4, symSize: 0x4C }
  - { offsetInCU: 0x1379C, offset: 0x1379C, size: 0x8, addend: 0x0, symName: __ZNSt3__18ios_base5widthB8ue170006El, symObjAddr: 0x8930, symBinAddr: 0x10000A740, symSize: 0x2C }
  - { offsetInCU: 0x137FF, offset: 0x137FF, size: 0x8, addend: 0x0, symName: __ZNKSt3__113basic_ostreamIcNS_11char_traitsIcEEE6sentrycvbB8ue170006Ev, symObjAddr: 0x8B50, symBinAddr: 0x10000A960, symSize: 0x1C }
  - { offsetInCU: 0x13824, offset: 0x13824, size: 0x8, addend: 0x0, symName: __ZNSt3__119ostreambuf_iteratorIcNS_11char_traitsIcEEEC1B8ue170006ERNS_13basic_ostreamIcS2_EE, symObjAddr: 0x8DB4, symBinAddr: 0x10000ABC4, symSize: 0x34 }
  - { offsetInCU: 0x1385B, offset: 0x1385B, size: 0x8, addend: 0x0, symName: __ZNKSt3__18ios_base5flagsB8ue170006Ev, symObjAddr: 0x8DE8, symBinAddr: 0x10000ABF8, symSize: 0x18 }
  - { offsetInCU: 0x13882, offset: 0x13882, size: 0x8, addend: 0x0, symName: __ZNKSt3__19basic_iosIcNS_11char_traitsIcEEE4fillB8ue170006Ev, symObjAddr: 0x8E00, symBinAddr: 0x10000AC10, symSize: 0x64 }
  - { offsetInCU: 0x138A8, offset: 0x138A8, size: 0x8, addend: 0x0, symName: __ZNKSt3__119ostreambuf_iteratorIcNS_11char_traitsIcEEE6failedB8ue170006Ev, symObjAddr: 0x8E64, symBinAddr: 0x10000AC74, symSize: 0x24 }
  - { offsetInCU: 0x138CD, offset: 0x138CD, size: 0x8, addend: 0x0, symName: __ZNKSt3__18ios_base5widthB8ue170006Ev, symObjAddr: 0x8E88, symBinAddr: 0x10000AC98, symSize: 0x18 }
  - { offsetInCU: 0x138F4, offset: 0x138F4, size: 0x8, addend: 0x0, symName: __ZNSt3__115basic_streambufIcNS_11char_traitsIcEEE5sputnB8ue170006EPKcl, symObjAddr: 0x8EA0, symBinAddr: 0x10000ACB0, symSize: 0x3C }
  - { offsetInCU: 0x13935, offset: 0x13935, size: 0x8, addend: 0x0, symName: __ZNSt3__119ostreambuf_iteratorIcNS_11char_traitsIcEEEC2B8ue170006ERNS_13basic_ostreamIcS2_EE, symObjAddr: 0x8EDC, symBinAddr: 0x10000ACEC, symSize: 0x68 }
  - { offsetInCU: 0x1396C, offset: 0x1396C, size: 0x8, addend: 0x0, symName: __ZNSt3__112basic_stringIcNS_11char_traitsIcEENS_9allocatorIcEEEC2B8ue170006ILi0EEEPKc, symObjAddr: 0x8F44, symBinAddr: 0x10000AD54, symSize: 0x58 }
  - { offsetInCU: 0x139AA, offset: 0x139AA, size: 0x8, addend: 0x0, symName: __ZNSt3__111char_traitsIcE6lengthB8ue170006EPKc, symObjAddr: 0x8F9C, symBinAddr: 0x10000ADAC, symSize: 0x48 }
  - { offsetInCU: 0x139CD, offset: 0x139CD, size: 0x8, addend: 0x0, symName: __ZNSt3__16vectorI6RecordNS_9allocatorIS1_EEE11__make_iterB8ue170006EPS1_, symObjAddr: 0x9008, symBinAddr: 0x10000AE18, symSize: 0x30 }
  - { offsetInCU: 0x13A01, offset: 0x13A01, size: 0x8, addend: 0x0, symName: __ZNSt3__111__wrap_iterIP6RecordEC1B8ue170006ES2_, symObjAddr: 0x9038, symBinAddr: 0x10000AE48, symSize: 0x34 }
  - { offsetInCU: 0x13A38, offset: 0x13A38, size: 0x8, addend: 0x0, symName: __ZNSt3__111__wrap_iterIP6RecordEC2B8ue170006ES2_, symObjAddr: 0x906C, symBinAddr: 0x10000AE7C, symSize: 0x20 }
  - { offsetInCU: 0x13A6F, offset: 0x13A6F, size: 0x8, addend: 0x0, symName: __ZNKSt3__111__wrap_iterIP6RecordE4baseB8ue170006Ev, symObjAddr: 0x90D4, symBinAddr: 0x10000AEE4, symSize: 0x18 }
  - { offsetInCU: 0x13A94, offset: 0x13A94, size: 0x8, addend: 0x0, symName: __ZNSt3__112basic_stringIcNS_11char_traitsIcEENS_9allocatorIcEEEC2B8ue170006Emc, symObjAddr: 0x90EC, symBinAddr: 0x10000AEFC, symSize: 0x4C }
...
